<?xml version="1.0"?>
<pdml version="0" creator="wireshark/1.4.3">
<packet>
  <proto name="geninfo" pos="0" showname="General information" size="451">
    <field name="num" pos="0" show="1" showname="Number" value="1" size="451"/>
    <field name="len" pos="0" show="451" showname="Frame Length" value="1c3" size="451"/>
    <field name="caplen" pos="0" show="451" showname="Captured Length" value="1c3" size="451"/>
    <field name="timestamp" pos="0" show="Jan 21, 2013 10:57:28.425137000 PST" showname="Captured Time" value="1358794648.425137000" size="451"/>
  </proto>
  <proto name="frame" showname="Frame 1: 451 bytes on wire (3608 bits), 451 bytes captured (3608 bits)" size="451" pos="0">
    <field name="frame.time" showname="Arrival Time: Jan 21, 2013 10:57:28.425137000 PST" size="0" pos="0" show="Jan 21, 2013 10:57:28.425137000"/>
    <field name="frame.time_epoch" showname="Epoch Time: 1358794648.425137000 seconds" size="0" pos="0" show="1358794648.425137000"/>
    <field name="frame.time_delta" showname="Time delta from previous captured frame: 0.000000000 seconds" size="0" pos="0" show="0.000000000"/>
    <field name="frame.time_delta_displayed" showname="Time delta from previous displayed frame: 0.000000000 seconds" size="0" pos="0" show="0.000000000"/>
    <field name="frame.time_relative" showname="Time since reference or first frame: 0.000000000 seconds" size="0" pos="0" show="0.000000000"/>
    <field name="frame.number" showname="Frame Number: 1" size="0" pos="0" show="1"/>
    <field name="frame.len" showname="Frame Length: 451 bytes (3608 bits)" size="0" pos="0" show="451"/>
    <field name="frame.cap_len" showname="Capture Length: 451 bytes (3608 bits)" size="0" pos="0" show="451"/>
    <field name="frame.marked" showname="Frame is marked: False" size="0" pos="0" show="0"/>
    <field name="frame.ignored" showname="Frame is ignored: False" size="0" pos="0" show="0"/>
    <field name="frame.protocols" showname="Protocols in frame: eth:ip:tcp:http" size="0" pos="0" show="eth:ip:tcp:http"/>
  </proto>
  <proto name="eth" showname="Ethernet II, Src: Apple_a1:e1:39 (c8:bc:c8:a1:e1:39), Dst: Netscree_ff:20:70 (00:10:db:ff:20:70)" size="14" pos="0">
    <field name="eth.dst" showname="Destination: Netscree_ff:20:70 (00:10:db:ff:20:70)" size="6" pos="0" show="00:10:db:ff:20:70" value="0010dbff2070">
      <field name="eth.addr" showname="Address: Netscree_ff:20:70 (00:10:db:ff:20:70)" size="6" pos="0" show="00:10:db:ff:20:70" value="0010dbff2070"/>
      <field name="eth.ig" showname=".... ...0 .... .... .... .... = IG bit: Individual address (unicast)" size="3" pos="0" show="0" value="0" unmaskedvalue="0010db"/>
      <field name="eth.lg" showname=".... ..0. .... .... .... .... = LG bit: Globally unique address (factory default)" size="3" pos="0" show="0" value="0" unmaskedvalue="0010db"/>
    </field>
    <field name="eth.src" showname="Source: Apple_a1:e1:39 (c8:bc:c8:a1:e1:39)" size="6" pos="6" show="c8:bc:c8:a1:e1:39" value="c8bcc8a1e139">
      <field name="eth.addr" showname="Address: Apple_a1:e1:39 (c8:bc:c8:a1:e1:39)" size="6" pos="6" show="c8:bc:c8:a1:e1:39" value="c8bcc8a1e139"/>
      <field name="eth.ig" showname=".... ...0 .... .... .... .... = IG bit: Individual address (unicast)" size="3" pos="6" show="0" value="0" unmaskedvalue="c8bcc8"/>
      <field name="eth.lg" showname=".... ..0. .... .... .... .... = LG bit: Globally unique address (factory default)" size="3" pos="6" show="0" value="0" unmaskedvalue="c8bcc8"/>
    </field>
    <field name="eth.type" showname="Type: IP (0x0800)" size="2" pos="12" show="0x0800" value="0800"/>
  </proto>
  <proto name="ip" showname="Internet Protocol, Src: 192.168.4.223 (192.168.4.223), Dst: 107.21.212.123 (107.21.212.123)" size="20" pos="14">
    <field name="ip.version" showname="Version: 4" size="1" pos="14" show="4" value="45"/>
    <field name="ip.hdr_len" showname="Header length: 20 bytes" size="1" pos="14" show="20" value="45"/>
    <field name="ip.dsfield" showname="Differentiated Services Field: 0x00 (DSCP 0x00: Default; ECN: 0x00)" size="1" pos="15" show="0" value="00">
      <field name="ip.dsfield.dscp" showname="0000 00.. = Differentiated Services Codepoint: Default (0x00)" size="1" pos="15" show="0x00" value="0" unmaskedvalue="00"/>
      <field name="ip.dsfield.ect" showname=".... ..0. = ECN-Capable Transport (ECT): 0" size="1" pos="15" show="0" value="0" unmaskedvalue="00"/>
      <field name="ip.dsfield.ce" showname=".... ...0 = ECN-CE: 0" size="1" pos="15" show="0" value="0" unmaskedvalue="00"/>
    </field>
    <field name="ip.len" showname="Total Length: 437" size="2" pos="16" show="437" value="01b5"/>
    <field name="ip.id" showname="Identification: 0xca5e (51806)" size="2" pos="18" show="0xca5e" value="ca5e"/>
    <field name="ip.flags" showname="Flags: 0x02 (Don&apos;t Fragment)" size="1" pos="20" show="0x02" value="40">
      <field name="ip.flags.rb" showname="0... .... = Reserved bit: Not set" size="1" pos="20" show="0" value="40"/>
      <field name="ip.flags.df" showname=".1.. .... = Don&apos;t fragment: Set" size="1" pos="20" show="1" value="40"/>
      <field name="ip.flags.mf" showname="..0. .... = More fragments: Not set" size="1" pos="20" show="0" value="40"/>
    </field>
    <field name="ip.frag_offset" showname="Fragment offset: 0" size="2" pos="20" show="0" value="4000"/>
    <field name="ip.ttl" showname="Time to live: 64" size="1" pos="22" show="64" value="40"/>
    <field name="ip.proto" showname="Protocol: TCP (6)" size="1" pos="23" show="6" value="06"/>
    <field name="ip.checksum" showname="Header checksum: 0x0000 [incorrect, should be 0x69cc]" size="2" pos="24" show="0x0000" value="0000">
      <field name="ip.checksum_good" showname="Good: False" size="2" pos="24" show="0" value="0000"/>
      <field name="ip.checksum_bad" showname="Bad: True" size="2" pos="24" show="1" value="0000">
        <proto name="expert" showname="Expert Info (Error/Checksum): Bad checksum" size="0" pos="0">
          <field name="expert.message" showname="Message: Bad checksum" size="0" pos="0" show="Bad checksum"/>
          <field name="expert.severity" showname="Severity level: Error" size="0" pos="0" show="Error"/>
          <field name="expert.group" showname="Group: Checksum" size="0" pos="0" show="Checksum"/>
        </proto>
      </field>
    </field>
    <field name="ip.src" showname="Source: 192.168.4.223 (192.168.4.223)" size="4" pos="26" show="192.168.4.223" value="c0a804df"/>
    <field name="ip.addr" showname="Source or Destination Address: 192.168.4.223 (192.168.4.223)" hide="yes" size="4" pos="26" show="192.168.4.223" value="c0a804df"/>
    <field name="ip.src_host" showname="Source Host: 192.168.4.223" hide="yes" size="4" pos="26" show="192.168.4.223" value="c0a804df"/>
    <field name="ip.host" showname="Source or Destination Host: 192.168.4.223" hide="yes" size="4" pos="26" show="192.168.4.223" value="c0a804df"/>
    <field name="ip.dst" showname="Destination: 107.21.212.123 (107.21.212.123)" size="4" pos="30" show="107.21.212.123" value="6b15d47b"/>
    <field name="ip.addr" showname="Source or Destination Address: 107.21.212.123 (107.21.212.123)" hide="yes" size="4" pos="30" show="107.21.212.123" value="6b15d47b"/>
    <field name="ip.dst_host" showname="Destination Host: 107.21.212.123" hide="yes" size="4" pos="30" show="107.21.212.123" value="6b15d47b"/>
    <field name="ip.host" showname="Source or Destination Host: 107.21.212.123" hide="yes" size="4" pos="30" show="107.21.212.123" value="6b15d47b"/>
  </proto>
  <proto name="tcp" showname="Transmission Control Protocol, Src Port: 64697 (64697), Dst Port: http (80), Seq: 1, Ack: 1, Len: 385" size="32" pos="34">
    <field name="tcp.srcport" showname="Source port: 64697 (64697)" size="2" pos="34" show="64697" value="fcb9"/>
    <field name="tcp.dstport" showname="Destination port: http (80)" size="2" pos="36" show="80" value="0050"/>
    <field name="tcp.port" showname="Source or Destination Port: 64697" hide="yes" size="2" pos="34" show="64697" value="fcb9"/>
    <field name="tcp.port" showname="Source or Destination Port: 80" hide="yes" size="2" pos="36" show="80" value="0050"/>
    <field name="tcp.stream" showname="Stream index: 0" size="0" pos="34" show="0"/>
    <field name="tcp.len" showname="TCP Segment Len: 385" hide="yes" size="1" pos="46" show="385" value="80"/>
    <field name="tcp.seq" showname="Sequence number: 1    (relative sequence number)" size="4" pos="38" show="1" value="68dc8ec1"/>
    <field name="tcp.nxtseq" showname="Next sequence number: 386    (relative sequence number)" size="0" pos="34" show="386"/>
    <field name="tcp.ack" showname="Acknowledgement number: 1    (relative ack number)" size="4" pos="42" show="1" value="8bfdc398"/>
    <field name="tcp.hdr_len" showname="Header length: 32 bytes" size="1" pos="46" show="32" value="80"/>
    <field name="tcp.flags" showname="Flags: 0x18 (PSH, ACK)" size="2" pos="46" show="0x18" value="8018">
      <field name="tcp.flags.res" showname="000. .... .... = Reserved: Not set" size="1" pos="46" show="0" value="0" unmaskedvalue="80"/>
      <field name="tcp.flags.ns" showname="...0 .... .... = Nonce: Not set" size="1" pos="46" show="0" value="0" unmaskedvalue="80"/>
      <field name="tcp.flags.cwr" showname=".... 0... .... = Congestion Window Reduced (CWR): Not set" size="1" pos="47" show="0" value="0" unmaskedvalue="18"/>
      <field name="tcp.flags.ecn" showname=".... .0.. .... = ECN-Echo: Not set" size="1" pos="47" show="0" value="0" unmaskedvalue="18"/>
      <field name="tcp.flags.urg" showname=".... ..0. .... = Urgent: Not set" size="1" pos="47" show="0" value="0" unmaskedvalue="18"/>
      <field name="tcp.flags.ack" showname=".... ...1 .... = Acknowledgement: Set" size="1" pos="47" show="1" value="1" unmaskedvalue="18"/>
      <field name="tcp.flags.push" showname=".... .... 1... = Push: Set" size="1" pos="47" show="1" value="1" unmaskedvalue="18"/>
      <field name="tcp.flags.reset" showname=".... .... .0.. = Reset: Not set" size="1" pos="47" show="0" value="0" unmaskedvalue="18"/>
      <field name="tcp.flags.syn" showname=".... .... ..0. = Syn: Not set" size="1" pos="47" show="0" value="0" unmaskedvalue="18"/>
      <field name="tcp.flags.fin" showname=".... .... ...0 = Fin: Not set" size="1" pos="47" show="0" value="0" unmaskedvalue="18"/>
    </field>
    <field name="tcp.window_size" showname="Window size: 8235" size="2" pos="48" show="8235" value="202b"/>
    <field name="tcp.checksum" showname="Checksum: 0x06c0 [validation disabled]" size="2" pos="50" show="0x06c0" value="06c0">
      <field name="tcp.checksum_good" showname="Good Checksum: False" size="2" pos="50" show="0" value="06c0"/>
      <field name="tcp.checksum_bad" showname="Bad Checksum: False" size="2" pos="50" show="0" value="06c0"/>
    </field>
    <field name="tcp.options" showname="Options: (12 bytes)" size="12" pos="54" show="01:01:08:0a:2a:f7:6a:9f:01:81:c9:97" value="0101080a2af76a9f0181c997">
      <field name="" show="NOP" size="1" pos="54" value="01"/>
      <field name="" show="NOP" size="1" pos="55" value="01"/>
      <field name="tcp.options.time_stamp" showname="TCP Time Stamp Option: True" hide="yes" size="10" pos="56" show="1" value="080a2af76a9f0181c997"/>
      <field name="" show="Timestamps: TSval 720857759, TSecr 25282967" size="10" pos="56" value="080a2af76a9f0181c997"/>
    </field>
    <field name="" show="SEQ/ACK analysis" size="0" pos="34" value="">
      <field name="tcp.analysis.bytes_in_flight" showname="Number of bytes in flight: 385" size="0" pos="34" show="385"/>
    </field>
  </proto>
  <proto name="http" showname="Hypertext Transfer Protocol" size="385" pos="66">
    <field name="" show="GET / HTTP/1.1\r\n" size="16" pos="66" value="474554202f20485454502f312e310d0a">
      <proto name="expert" showname="Expert Info (Chat/Sequence): GET / HTTP/1.1\r\n" size="0" pos="0">
        <field name="expert.message" showname="Message: GET / HTTP/1.1\r\n" size="0" pos="0" show="GET / HTTP/1.1\\r\\n"/>
        <field name="expert.severity" showname="Severity level: Chat" size="0" pos="0" show="Chat"/>
        <field name="expert.group" showname="Group: Sequence" size="0" pos="0" show="Sequence"/>
      </proto>
      <field name="http.request.method" showname="Request Method: GET" size="3" pos="66" show="GET" value="474554"/>
      <field name="http.request.uri" showname="Request URI: /" size="1" pos="70" show="/" value="2f"/>
      <field name="http.request.version" showname="Request Version: HTTP/1.1" size="8" pos="72" show="HTTP/1.1" value="485454502f312e31"/>
    </field>
    <field name="http.host" showname="Host: dpwspoon.com\r\n" size="20" pos="82" show="dpwspoon.com" value="486f73743a2064707773706f6f6e2e636f6d0d0a"/>
    <field name="http.connection" showname="Connection: keep-alive\r\n" size="24" pos="102" show="keep-alive" value="436f6e6e656374696f6e3a206b6565702d616c6976650d0a"/>
    <field name="http.accept" showname="Accept: text/html,application/xhtml+xml,application/xml;q=0.9,*/*;q=0.8\r\n" size="73" pos="126" show="text/html,application/xhtml+xml,application/xml;q=0.9,*/*;q=0.8" value="4163636570743a20746578742f68746d6c2c6170706c69636174696f6e2f7868746d6c2b786d6c2c6170706c69636174696f6e2f786d6c3b713d302e392c2a2f2a3b713d302e380d0a"/>
    <field name="http.user_agent" showname="User-Agent: Mozilla/5.0 (Macintosh; Intel Mac OS X 10_8_2) AppleWebKit/537.17 (KHTML, like Gecko) Chrome/24.0.1312.52 Safari/537.17\r\n" size="133" pos="199" show="Mozilla/5.0 (Macintosh; Intel Mac OS X 10_8_2) AppleWebKit/537.17 (KHTML, like Gecko) Chrome/24.0.1312.52 Safari/537.17" value="557365722d4167656e743a204d6f7a696c6c612f352e3020284d6163696e746f73683b20496e74656c204d6163204f5320582031305f385f3229204170706c655765624b69742f3533372e313720284b48544d4c2c206c696b65204765636b6f29204368726f6d652f32342e302e313331322e3532205361666172692f3533372e31370d0a"/>
    <field name="http.accept_encoding" showname="Accept-Encoding: gzip,deflate,sdch\r\n" size="36" pos="332" show="gzip,deflate,sdch" value="4163636570742d456e636f64696e673a20677a69702c6465666c6174652c736463680d0a"/>
    <field name="http.accept_language" showname="Accept-Language: en-US,en;q=0.8\r\n" size="33" pos="368" show="en-US,en;q=0.8" value="4163636570742d4c616e67756167653a20656e2d55532c656e3b713d302e380d0a"/>
    <field name="" show="Accept-Charset: ISO-8859-1,utf-8;q=0.7,*;q=0.3\r\n" size="48" pos="401" value="4163636570742d436861727365743a2049534f2d383835392d312c7574662d383b713d302e372c2a3b713d302e330d0a"/>
    <field name="" show="\r\n" size="2" pos="449" value="0d0a"/>
    <field name="http.request" showname="Request: True" hide="yes" size="0" pos="66" show="1"/>
  </proto>
</packet>


</pdml>
