<?xml version="1.0"?>
<pdml version="0" creator="wireshark/1.4.3">
<packet>
  <proto name="geninfo" pos="0" showname="General information" size="88">
    <field name="num" pos="0" show="1" showname="Number" value="1" size="88"/>
    <field name="len" pos="0" show="88" showname="Frame Length" value="58" size="88"/>
    <field name="caplen" pos="0" show="88" showname="Captured Length" value="58" size="88"/>
    <field name="timestamp" pos="0" show="Jan  7, 2013 15:57:36.273585000 PST" showname="Captured Time" value="1357603056.273585000" size="88"/>
  </proto>
  <proto name="frame" showname="Frame 1: 88 bytes on wire (704 bits), 88 bytes captured (704 bits)" size="88" pos="0">
    <field name="frame.time" showname="Arrival Time: Jan  7, 2013 15:57:36.273585000 PST" size="0" pos="0" show="Jan  7, 2013 15:57:36.273585000"/>
    <field name="frame.time_epoch" showname="Epoch Time: 1357603056.273585000 seconds" size="0" pos="0" show="1357603056.273585000"/>
    <field name="frame.time_delta" showname="Time delta from previous captured frame: 0.000000000 seconds" size="0" pos="0" show="0.000000000"/>
    <field name="frame.time_delta_displayed" showname="Time delta from previous displayed frame: 0.000000000 seconds" size="0" pos="0" show="0.000000000"/>
    <field name="frame.time_relative" showname="Time since reference or first frame: 0.000000000 seconds" size="0" pos="0" show="0.000000000"/>
    <field name="frame.number" showname="Frame Number: 1" size="0" pos="0" show="1"/>
    <field name="frame.len" showname="Frame Length: 88 bytes (704 bits)" size="0" pos="0" show="88"/>
    <field name="frame.cap_len" showname="Capture Length: 88 bytes (704 bits)" size="0" pos="0" show="88"/>
    <field name="frame.marked" showname="Frame is marked: False" size="0" pos="0" show="0"/>
    <field name="frame.ignored" showname="Frame is ignored: False" size="0" pos="0" show="0"/>
    <field name="frame.protocols" showname="Protocols in frame: null:ipv6:tcp" size="0" pos="0" show="null:ipv6:tcp"/>
  </proto>
  <proto name="null" showname="Null/Loopback" size="4" pos="0">
    <field name="null.family" showname="Family: IPv6 (30)" size="4" pos="0" show="30" value="1e000000"/>
  </proto>
  <proto name="ipv6" showname="Internet Protocol Version 6, Src: ::1 (::1), Dst: ::1 (::1)" size="40" pos="4">
    <field name="ipv6.version" showname="0110 .... = Version: 6" size="1" pos="4" show="6" value="6" unmaskedvalue="60">
      <field name="ip.version" showname="0110 .... = This field makes the filter &quot;ip.version == 6&quot; possible: 6" size="1" pos="4" show="6" value="6" unmaskedvalue="60"/>
    </field>
    <field name="ipv6.class" showname=".... 0000 0000 .... .... .... .... .... = Traffic class: 0x00000000" size="4" pos="4" show="0x00000000" value="0" unmaskedvalue="60000000">
      <field name="ipv6.traffic_class.dscp" showname=".... 0000 00.. .... .... .... .... .... = Differentiated Services Field: Default (0x00000000)" size="4" pos="4" show="0x00000000" value="0" unmaskedvalue="60000000"/>
      <field name="ipv6.traffic_class.ect" showname=".... .... ..0. .... .... .... .... .... = ECN-Capable Transport (ECT): Not set" size="4" pos="4" show="0" value="0" unmaskedvalue="60000000"/>
      <field name="ipv6.traffic_class.ce" showname=".... .... ...0 .... .... .... .... .... = ECN-CE: Not set" size="4" pos="4" show="0" value="0" unmaskedvalue="60000000"/>
    </field>
    <field name="ipv6.flow" showname=".... .... .... 0000 0000 0000 0000 0000 = Flowlabel: 0x00000000" size="4" pos="4" show="0x00000000" value="0" unmaskedvalue="60000000"/>
    <field name="ipv6.plen" showname="Payload length: 44" size="2" pos="8" show="44" value="002c"/>
    <field name="ipv6.nxt" showname="Next header: TCP (0x06)" size="1" pos="10" show="0x06" value="06"/>
    <field name="ipv6.hlim" showname="Hop limit: 64" size="1" pos="11" show="64" value="40"/>
    <field name="ipv6.src" showname="Source: ::1 (::1)" size="16" pos="12" show="::1" value="00000000000000000000000000000001"/>
    <field name="ipv6.addr" showname="Address: ::1 (::1)" hide="yes" size="16" pos="12" show="::1" value="00000000000000000000000000000001"/>
    <field name="ipv6.src_host" showname="Source Host: ::1" hide="yes" size="16" pos="12" show="::1" value="00000000000000000000000000000001"/>
    <field name="ipv6.host" showname="Host: ::1" hide="yes" size="16" pos="12" show="::1" value="00000000000000000000000000000001"/>
    <field name="ipv6.dst" showname="Destination: ::1 (::1)" size="16" pos="28" show="::1" value="00000000000000000000000000000001"/>
    <field name="ipv6.addr" showname="Address: ::1 (::1)" hide="yes" size="16" pos="28" show="::1" value="00000000000000000000000000000001"/>
    <field name="ipv6.dst_host" showname="Destination Host: ::1" hide="yes" size="16" pos="28" show="::1" value="00000000000000000000000000000001"/>
    <field name="ipv6.host" showname="Host: ::1" hide="yes" size="16" pos="28" show="::1" value="00000000000000000000000000000001"/>
  </proto>
  <proto name="tcp" showname="Transmission Control Protocol, Src Port: 57320 (57320), Dst Port: afs3-fileserver (7000), Seq: 0, Len: 0" size="44" pos="44">
    <field name="tcp.srcport" showname="Source port: 57320 (57320)" size="2" pos="44" show="57320" value="dfe8"/>
    <field name="tcp.dstport" showname="Destination port: afs3-fileserver (7000)" size="2" pos="46" show="7000" value="1b58"/>
    <field name="tcp.port" showname="Source or Destination Port: 57320" hide="yes" size="2" pos="44" show="57320" value="dfe8"/>
    <field name="tcp.port" showname="Source or Destination Port: 7000" hide="yes" size="2" pos="46" show="7000" value="1b58"/>
    <field name="tcp.stream" showname="Stream index: 0" size="0" pos="44" show="0"/>
    <field name="tcp.len" showname="TCP Segment Len: 0" hide="yes" size="1" pos="56" show="0" value="b0"/>
    <field name="tcp.seq" showname="Sequence number: 0    (relative sequence number)" size="4" pos="48" show="0" value="99a9575d"/>
    <field name="tcp.hdr_len" showname="Header length: 44 bytes" size="1" pos="56" show="44" value="b0"/>
    <field name="tcp.flags" showname="Flags: 0x02 (SYN)" size="2" pos="56" show="0x02" value="b002">
      <field name="tcp.flags.res" showname="000. .... .... = Reserved: Not set" size="1" pos="56" show="0" value="0" unmaskedvalue="b0"/>
      <field name="tcp.flags.ns" showname="...0 .... .... = Nonce: Not set" size="1" pos="56" show="0" value="0" unmaskedvalue="b0"/>
      <field name="tcp.flags.cwr" showname=".... 0... .... = Congestion Window Reduced (CWR): Not set" size="1" pos="57" show="0" value="0" unmaskedvalue="02"/>
      <field name="tcp.flags.ecn" showname=".... .0.. .... = ECN-Echo: Not set" size="1" pos="57" show="0" value="0" unmaskedvalue="02"/>
      <field name="tcp.flags.urg" showname=".... ..0. .... = Urgent: Not set" size="1" pos="57" show="0" value="0" unmaskedvalue="02"/>
      <field name="tcp.flags.ack" showname=".... ...0 .... = Acknowledgement: Not set" size="1" pos="57" show="0" value="0" unmaskedvalue="02"/>
      <field name="tcp.flags.push" showname=".... .... 0... = Push: Not set" size="1" pos="57" show="0" value="0" unmaskedvalue="02"/>
      <field name="tcp.flags.reset" showname=".... .... .0.. = Reset: Not set" size="1" pos="57" show="0" value="0" unmaskedvalue="02"/>
      <field name="tcp.flags.syn" showname=".... .... ..1. = Syn: Set" size="1" pos="57" show="1" value="1" unmaskedvalue="02">
        <proto name="expert" showname="Expert Info (Chat/Sequence): Connection establish request (SYN): server port afs3-fileserver" size="0" pos="0">
          <field name="expert.message" showname="Message: Connection establish request (SYN): server port afs3-fileserver" size="0" pos="0" show="Connection establish request (SYN): server port afs3-fileserver"/>
          <field name="expert.severity" showname="Severity level: Chat" size="0" pos="0" show="Chat"/>
          <field name="expert.group" showname="Group: Sequence" size="0" pos="0" show="Sequence"/>
        </proto>
      </field>
      <field name="tcp.flags.fin" showname=".... .... ...0 = Fin: Not set" size="1" pos="57" show="0" value="0" unmaskedvalue="02"/>
    </field>
    <field name="tcp.window_size" showname="Window size: 65535" size="2" pos="58" show="65535" value="ffff"/>
    <field name="tcp.checksum" showname="Checksum: 0x0034 [validation disabled]" size="2" pos="60" show="0x0034" value="0034">
      <field name="tcp.checksum_good" showname="Good Checksum: False" size="2" pos="60" show="0" value="0034"/>
      <field name="tcp.checksum_bad" showname="Bad Checksum: False" size="2" pos="60" show="0" value="0034"/>
    </field>
    <field name="tcp.options" showname="Options: (24 bytes)" size="24" pos="64" show="02:04:3f:c4:01:03:03:04:01:01:08:0a:11:4c:ea:90:00:00:00:00:04:02:00:00" value="02043fc4010303040101080a114cea900000000004020000">
      <field name="tcp.options.mss" showname="TCP MSS Option: True" hide="yes" size="4" pos="64" show="1" value="02043fc4"/>
      <field name="tcp.options.mss_val" showname="Maximum segment size: 16324 bytes" size="4" pos="64" show="16324" value="02043fc4"/>
      <field name="" show="NOP" size="1" pos="68" value="01"/>
      <field name="tcp.options.wscale" showname="TCP Window Scale Option: True" hide="yes" size="3" pos="69" show="1" value="030304"/>
      <field name="tcp.options.wscale_val" showname="Window scale: 4 (multiply by 16)" size="3" pos="69" show="4" value="030304"/>
      <field name="" show="NOP" size="1" pos="72" value="01"/>
      <field name="" show="NOP" size="1" pos="73" value="01"/>
      <field name="tcp.options.time_stamp" showname="TCP Time Stamp Option: True" hide="yes" size="10" pos="74" show="1" value="080a114cea9000000000"/>
      <field name="" show="Timestamps: TSval 290253456, TSecr 0" size="10" pos="74" value="080a114cea9000000000"/>
      <field name="tcp.options.sack_perm" showname="TCP SACK Permitted Option: True" size="2" pos="84" show="1" value="0402"/>
      <field name="" show="EOL" size="1" pos="86" value="00"/>
    </field>
  </proto>
</packet>


<packet>
  <proto name="geninfo" pos="0" showname="General information" size="64">
    <field name="num" pos="0" show="2" showname="Number" value="2" size="64"/>
    <field name="len" pos="0" show="64" showname="Frame Length" value="40" size="64"/>
    <field name="caplen" pos="0" show="64" showname="Captured Length" value="40" size="64"/>
    <field name="timestamp" pos="0" show="Jan  7, 2013 15:57:36.273616000 PST" showname="Captured Time" value="1357603056.273616000" size="64"/>
  </proto>
  <proto name="frame" showname="Frame 2: 64 bytes on wire (512 bits), 64 bytes captured (512 bits)" size="64" pos="0">
    <field name="frame.time" showname="Arrival Time: Jan  7, 2013 15:57:36.273616000 PST" size="0" pos="0" show="Jan  7, 2013 15:57:36.273616000"/>
    <field name="frame.time_epoch" showname="Epoch Time: 1357603056.273616000 seconds" size="0" pos="0" show="1357603056.273616000"/>
    <field name="frame.time_delta" showname="Time delta from previous captured frame: 0.000031000 seconds" size="0" pos="0" show="0.000031000"/>
    <field name="frame.time_delta_displayed" showname="Time delta from previous displayed frame: 0.000031000 seconds" size="0" pos="0" show="0.000031000"/>
    <field name="frame.time_relative" showname="Time since reference or first frame: 0.000031000 seconds" size="0" pos="0" show="0.000031000"/>
    <field name="frame.number" showname="Frame Number: 2" size="0" pos="0" show="2"/>
    <field name="frame.len" showname="Frame Length: 64 bytes (512 bits)" size="0" pos="0" show="64"/>
    <field name="frame.cap_len" showname="Capture Length: 64 bytes (512 bits)" size="0" pos="0" show="64"/>
    <field name="frame.marked" showname="Frame is marked: False" size="0" pos="0" show="0"/>
    <field name="frame.ignored" showname="Frame is ignored: False" size="0" pos="0" show="0"/>
    <field name="frame.protocols" showname="Protocols in frame: null:ipv6:tcp" size="0" pos="0" show="null:ipv6:tcp"/>
  </proto>
  <proto name="null" showname="Null/Loopback" size="4" pos="0">
    <field name="null.family" showname="Family: IPv6 (30)" size="4" pos="0" show="30" value="1e000000"/>
  </proto>
  <proto name="ipv6" showname="Internet Protocol Version 6, Src: ::1 (::1), Dst: ::1 (::1)" size="40" pos="4">
    <field name="ipv6.version" showname="0110 .... = Version: 6" size="1" pos="4" show="6" value="6" unmaskedvalue="60">
      <field name="ip.version" showname="0110 .... = This field makes the filter &quot;ip.version == 6&quot; possible: 6" size="1" pos="4" show="6" value="6" unmaskedvalue="60"/>
    </field>
    <field name="ipv6.class" showname=".... 0000 0000 .... .... .... .... .... = Traffic class: 0x00000000" size="4" pos="4" show="0x00000000" value="0" unmaskedvalue="60000000">
      <field name="ipv6.traffic_class.dscp" showname=".... 0000 00.. .... .... .... .... .... = Differentiated Services Field: Default (0x00000000)" size="4" pos="4" show="0x00000000" value="0" unmaskedvalue="60000000"/>
      <field name="ipv6.traffic_class.ect" showname=".... .... ..0. .... .... .... .... .... = ECN-Capable Transport (ECT): Not set" size="4" pos="4" show="0" value="0" unmaskedvalue="60000000"/>
      <field name="ipv6.traffic_class.ce" showname=".... .... ...0 .... .... .... .... .... = ECN-CE: Not set" size="4" pos="4" show="0" value="0" unmaskedvalue="60000000"/>
    </field>
    <field name="ipv6.flow" showname=".... .... .... 0000 0000 0000 0000 0000 = Flowlabel: 0x00000000" size="4" pos="4" show="0x00000000" value="0" unmaskedvalue="60000000"/>
    <field name="ipv6.plen" showname="Payload length: 20" size="2" pos="8" show="20" value="0014"/>
    <field name="ipv6.nxt" showname="Next header: TCP (0x06)" size="1" pos="10" show="0x06" value="06"/>
    <field name="ipv6.hlim" showname="Hop limit: 64" size="1" pos="11" show="64" value="40"/>
    <field name="ipv6.src" showname="Source: ::1 (::1)" size="16" pos="12" show="::1" value="00000000000000000000000000000001"/>
    <field name="ipv6.addr" showname="Address: ::1 (::1)" hide="yes" size="16" pos="12" show="::1" value="00000000000000000000000000000001"/>
    <field name="ipv6.src_host" showname="Source Host: ::1" hide="yes" size="16" pos="12" show="::1" value="00000000000000000000000000000001"/>
    <field name="ipv6.host" showname="Host: ::1" hide="yes" size="16" pos="12" show="::1" value="00000000000000000000000000000001"/>
    <field name="ipv6.dst" showname="Destination: ::1 (::1)" size="16" pos="28" show="::1" value="00000000000000000000000000000001"/>
    <field name="ipv6.addr" showname="Address: ::1 (::1)" hide="yes" size="16" pos="28" show="::1" value="00000000000000000000000000000001"/>
    <field name="ipv6.dst_host" showname="Destination Host: ::1" hide="yes" size="16" pos="28" show="::1" value="00000000000000000000000000000001"/>
    <field name="ipv6.host" showname="Host: ::1" hide="yes" size="16" pos="28" show="::1" value="00000000000000000000000000000001"/>
  </proto>
  <proto name="tcp" showname="Transmission Control Protocol, Src Port: afs3-fileserver (7000), Dst Port: 57320 (57320), Seq: 1, Ack: 1, Len: 0" size="20" pos="44">
    <field name="tcp.srcport" showname="Source port: afs3-fileserver (7000)" size="2" pos="44" show="7000" value="1b58"/>
    <field name="tcp.dstport" showname="Destination port: 57320 (57320)" size="2" pos="46" show="57320" value="dfe8"/>
    <field name="tcp.port" showname="Source or Destination Port: 7000" hide="yes" size="2" pos="44" show="7000" value="1b58"/>
    <field name="tcp.port" showname="Source or Destination Port: 57320" hide="yes" size="2" pos="46" show="57320" value="dfe8"/>
    <field name="tcp.stream" showname="Stream index: 0" size="0" pos="44" show="0"/>
    <field name="tcp.len" showname="TCP Segment Len: 0" hide="yes" size="1" pos="56" show="0" value="50"/>
    <field name="tcp.seq" showname="Sequence number: 1    (relative sequence number)" size="4" pos="48" show="1" value="00000000"/>
    <field name="tcp.ack" showname="Acknowledgement number: 1    (relative ack number)" size="4" pos="52" show="1" value="99a9575e"/>
    <field name="tcp.hdr_len" showname="Header length: 20 bytes" size="1" pos="56" show="20" value="50"/>
    <field name="tcp.flags" showname="Flags: 0x14 (RST, ACK)" size="2" pos="56" show="0x14" value="5014">
      <field name="tcp.flags.res" showname="000. .... .... = Reserved: Not set" size="1" pos="56" show="0" value="0" unmaskedvalue="50"/>
      <field name="tcp.flags.ns" showname="...0 .... .... = Nonce: Not set" size="1" pos="56" show="0" value="0" unmaskedvalue="50"/>
      <field name="tcp.flags.cwr" showname=".... 0... .... = Congestion Window Reduced (CWR): Not set" size="1" pos="57" show="0" value="0" unmaskedvalue="14"/>
      <field name="tcp.flags.ecn" showname=".... .0.. .... = ECN-Echo: Not set" size="1" pos="57" show="0" value="0" unmaskedvalue="14"/>
      <field name="tcp.flags.urg" showname=".... ..0. .... = Urgent: Not set" size="1" pos="57" show="0" value="0" unmaskedvalue="14"/>
      <field name="tcp.flags.ack" showname=".... ...1 .... = Acknowledgement: Set" size="1" pos="57" show="1" value="1" unmaskedvalue="14"/>
      <field name="tcp.flags.push" showname=".... .... 0... = Push: Not set" size="1" pos="57" show="0" value="0" unmaskedvalue="14"/>
      <field name="tcp.flags.reset" showname=".... .... .1.. = Reset: Set" size="1" pos="57" show="1" value="1" unmaskedvalue="14">
        <proto name="expert" showname="Expert Info (Chat/Sequence): Connection reset (RST)" size="0" pos="0">
          <field name="expert.message" showname="Message: Connection reset (RST)" size="0" pos="0" show="Connection reset (RST)"/>
          <field name="expert.severity" showname="Severity level: Chat" size="0" pos="0" show="Chat"/>
          <field name="expert.group" showname="Group: Sequence" size="0" pos="0" show="Sequence"/>
        </proto>
      </field>
      <field name="tcp.flags.syn" showname=".... .... ..0. = Syn: Not set" size="1" pos="57" show="0" value="0" unmaskedvalue="14"/>
      <field name="tcp.flags.fin" showname=".... .... ...0 = Fin: Not set" size="1" pos="57" show="0" value="0" unmaskedvalue="14"/>
    </field>
    <field name="tcp.window_size" showname="Window size: 0" size="2" pos="58" show="0" value="0000"/>
    <field name="tcp.checksum" showname="Checksum: 0x001c [validation disabled]" size="2" pos="60" show="0x001c" value="001c">
      <field name="tcp.checksum_good" showname="Good Checksum: False" size="2" pos="60" show="0" value="001c"/>
      <field name="tcp.checksum_bad" showname="Bad Checksum: False" size="2" pos="60" show="0" value="001c"/>
    </field>
    <field name="" show="SEQ/ACK analysis" size="0" pos="44" value="">
      <field name="tcp.analysis.acks_frame" showname="This is an ACK to the segment in frame: 1" size="0" pos="44" show="1"/>
      <field name="tcp.analysis.ack_rtt" showname="The RTT to ACK the segment was: 0.000031000 seconds" size="0" pos="44" show="0.000031000"/>
    </field>
  </proto>
</packet>


<packet>
  <proto name="geninfo" pos="0" showname="General information" size="68">
    <field name="num" pos="0" show="3" showname="Number" value="3" size="68"/>
    <field name="len" pos="0" show="68" showname="Frame Length" value="44" size="68"/>
    <field name="caplen" pos="0" show="68" showname="Captured Length" value="44" size="68"/>
    <field name="timestamp" pos="0" show="Jan  7, 2013 15:57:36.273664000 PST" showname="Captured Time" value="1357603056.273664000" size="68"/>
  </proto>
  <proto name="frame" showname="Frame 3: 68 bytes on wire (544 bits), 68 bytes captured (544 bits)" size="68" pos="0">
    <field name="frame.time" showname="Arrival Time: Jan  7, 2013 15:57:36.273664000 PST" size="0" pos="0" show="Jan  7, 2013 15:57:36.273664000"/>
    <field name="frame.time_epoch" showname="Epoch Time: 1357603056.273664000 seconds" size="0" pos="0" show="1357603056.273664000"/>
    <field name="frame.time_delta" showname="Time delta from previous captured frame: 0.000048000 seconds" size="0" pos="0" show="0.000048000"/>
    <field name="frame.time_delta_displayed" showname="Time delta from previous displayed frame: 0.000048000 seconds" size="0" pos="0" show="0.000048000"/>
    <field name="frame.time_relative" showname="Time since reference or first frame: 0.000079000 seconds" size="0" pos="0" show="0.000079000"/>
    <field name="frame.number" showname="Frame Number: 3" size="0" pos="0" show="3"/>
    <field name="frame.len" showname="Frame Length: 68 bytes (544 bits)" size="0" pos="0" show="68"/>
    <field name="frame.cap_len" showname="Capture Length: 68 bytes (544 bits)" size="0" pos="0" show="68"/>
    <field name="frame.marked" showname="Frame is marked: False" size="0" pos="0" show="0"/>
    <field name="frame.ignored" showname="Frame is ignored: False" size="0" pos="0" show="0"/>
    <field name="frame.protocols" showname="Protocols in frame: null:ip:tcp" size="0" pos="0" show="null:ip:tcp"/>
  </proto>
  <proto name="null" showname="Null/Loopback" size="4" pos="0">
    <field name="null.family" showname="Family: IP (2)" size="4" pos="0" show="2" value="02000000"/>
  </proto>
  <proto name="ip" showname="Internet Protocol, Src: 127.0.0.1 (127.0.0.1), Dst: 127.0.0.1 (127.0.0.1)" size="20" pos="4">
    <field name="ip.version" showname="Version: 4" size="1" pos="4" show="4" value="45"/>
    <field name="ip.hdr_len" showname="Header length: 20 bytes" size="1" pos="4" show="20" value="45"/>
    <field name="ip.dsfield" showname="Differentiated Services Field: 0x00 (DSCP 0x00: Default; ECN: 0x00)" size="1" pos="5" show="0" value="00">
      <field name="ip.dsfield.dscp" showname="0000 00.. = Differentiated Services Codepoint: Default (0x00)" size="1" pos="5" show="0x00" value="0" unmaskedvalue="00"/>
      <field name="ip.dsfield.ect" showname=".... ..0. = ECN-Capable Transport (ECT): 0" size="1" pos="5" show="0" value="0" unmaskedvalue="00"/>
      <field name="ip.dsfield.ce" showname=".... ...0 = ECN-CE: 0" size="1" pos="5" show="0" value="0" unmaskedvalue="00"/>
    </field>
    <field name="ip.len" showname="Total Length: 64" size="2" pos="6" show="64" value="0040"/>
    <field name="ip.id" showname="Identification: 0x3de8 (15848)" size="2" pos="8" show="0x3de8" value="3de8"/>
    <field name="ip.flags" showname="Flags: 0x02 (Don&apos;t Fragment)" size="1" pos="10" show="0x02" value="40">
      <field name="ip.flags.rb" showname="0... .... = Reserved bit: Not set" size="1" pos="10" show="0" value="40"/>
      <field name="ip.flags.df" showname=".1.. .... = Don&apos;t fragment: Set" size="1" pos="10" show="1" value="40"/>
      <field name="ip.flags.mf" showname="..0. .... = More fragments: Not set" size="1" pos="10" show="0" value="40"/>
    </field>
    <field name="ip.frag_offset" showname="Fragment offset: 0" size="2" pos="10" show="0" value="4000"/>
    <field name="ip.ttl" showname="Time to live: 64" size="1" pos="12" show="64" value="40"/>
    <field name="ip.proto" showname="Protocol: TCP (6)" size="1" pos="13" show="6" value="06"/>
    <field name="ip.checksum" showname="Header checksum: 0x0000 [incorrect, should be 0xfecd]" size="2" pos="14" show="0x0000" value="0000">
      <field name="ip.checksum_good" showname="Good: False" size="2" pos="14" show="0" value="0000"/>
      <field name="ip.checksum_bad" showname="Bad: True" size="2" pos="14" show="1" value="0000">
        <proto name="expert" showname="Expert Info (Error/Checksum): Bad checksum" size="0" pos="0">
          <field name="expert.message" showname="Message: Bad checksum" size="0" pos="0" show="Bad checksum"/>
          <field name="expert.severity" showname="Severity level: Error" size="0" pos="0" show="Error"/>
          <field name="expert.group" showname="Group: Checksum" size="0" pos="0" show="Checksum"/>
        </proto>
      </field>
    </field>
    <field name="ip.src" showname="Source: 127.0.0.1 (127.0.0.1)" size="4" pos="16" show="127.0.0.1" value="7f000001"/>
    <field name="ip.addr" showname="Source or Destination Address: 127.0.0.1 (127.0.0.1)" hide="yes" size="4" pos="16" show="127.0.0.1" value="7f000001"/>
    <field name="ip.src_host" showname="Source Host: 127.0.0.1" hide="yes" size="4" pos="16" show="127.0.0.1" value="7f000001"/>
    <field name="ip.host" showname="Source or Destination Host: 127.0.0.1" hide="yes" size="4" pos="16" show="127.0.0.1" value="7f000001"/>
    <field name="ip.dst" showname="Destination: 127.0.0.1 (127.0.0.1)" size="4" pos="20" show="127.0.0.1" value="7f000001"/>
    <field name="ip.addr" showname="Source or Destination Address: 127.0.0.1 (127.0.0.1)" hide="yes" size="4" pos="20" show="127.0.0.1" value="7f000001"/>
    <field name="ip.dst_host" showname="Destination Host: 127.0.0.1" hide="yes" size="4" pos="20" show="127.0.0.1" value="7f000001"/>
    <field name="ip.host" showname="Source or Destination Host: 127.0.0.1" hide="yes" size="4" pos="20" show="127.0.0.1" value="7f000001"/>
  </proto>
  <proto name="tcp" showname="Transmission Control Protocol, Src Port: 57321 (57321), Dst Port: afs3-fileserver (7000), Seq: 0, Len: 0" size="44" pos="24">
    <field name="tcp.srcport" showname="Source port: 57321 (57321)" size="2" pos="24" show="57321" value="dfe9"/>
    <field name="tcp.dstport" showname="Destination port: afs3-fileserver (7000)" size="2" pos="26" show="7000" value="1b58"/>
    <field name="tcp.port" showname="Source or Destination Port: 57321" hide="yes" size="2" pos="24" show="57321" value="dfe9"/>
    <field name="tcp.port" showname="Source or Destination Port: 7000" hide="yes" size="2" pos="26" show="7000" value="1b58"/>
    <field name="tcp.stream" showname="Stream index: 1" size="0" pos="24" show="1"/>
    <field name="tcp.len" showname="TCP Segment Len: 0" hide="yes" size="1" pos="36" show="0" value="b0"/>
    <field name="tcp.seq" showname="Sequence number: 0    (relative sequence number)" size="4" pos="28" show="0" value="1c85239e"/>
    <field name="tcp.hdr_len" showname="Header length: 44 bytes" size="1" pos="36" show="44" value="b0"/>
    <field name="tcp.flags" showname="Flags: 0x02 (SYN)" size="2" pos="36" show="0x02" value="b002">
      <field name="tcp.flags.res" showname="000. .... .... = Reserved: Not set" size="1" pos="36" show="0" value="0" unmaskedvalue="b0"/>
      <field name="tcp.flags.ns" showname="...0 .... .... = Nonce: Not set" size="1" pos="36" show="0" value="0" unmaskedvalue="b0"/>
      <field name="tcp.flags.cwr" showname=".... 0... .... = Congestion Window Reduced (CWR): Not set" size="1" pos="37" show="0" value="0" unmaskedvalue="02"/>
      <field name="tcp.flags.ecn" showname=".... .0.. .... = ECN-Echo: Not set" size="1" pos="37" show="0" value="0" unmaskedvalue="02"/>
      <field name="tcp.flags.urg" showname=".... ..0. .... = Urgent: Not set" size="1" pos="37" show="0" value="0" unmaskedvalue="02"/>
      <field name="tcp.flags.ack" showname=".... ...0 .... = Acknowledgement: Not set" size="1" pos="37" show="0" value="0" unmaskedvalue="02"/>
      <field name="tcp.flags.push" showname=".... .... 0... = Push: Not set" size="1" pos="37" show="0" value="0" unmaskedvalue="02"/>
      <field name="tcp.flags.reset" showname=".... .... .0.. = Reset: Not set" size="1" pos="37" show="0" value="0" unmaskedvalue="02"/>
      <field name="tcp.flags.syn" showname=".... .... ..1. = Syn: Set" size="1" pos="37" show="1" value="1" unmaskedvalue="02">
        <proto name="expert" showname="Expert Info (Chat/Sequence): Connection establish request (SYN): server port afs3-fileserver" size="0" pos="0">
          <field name="expert.message" showname="Message: Connection establish request (SYN): server port afs3-fileserver" size="0" pos="0" show="Connection establish request (SYN): server port afs3-fileserver"/>
          <field name="expert.severity" showname="Severity level: Chat" size="0" pos="0" show="Chat"/>
          <field name="expert.group" showname="Group: Sequence" size="0" pos="0" show="Sequence"/>
        </proto>
      </field>
      <field name="tcp.flags.fin" showname=".... .... ...0 = Fin: Not set" size="1" pos="37" show="0" value="0" unmaskedvalue="02"/>
    </field>
    <field name="tcp.window_size" showname="Window size: 65535" size="2" pos="38" show="65535" value="ffff"/>
    <field name="tcp.checksum" showname="Checksum: 0xfe34 [validation disabled]" size="2" pos="40" show="0xfe34" value="fe34">
      <field name="tcp.checksum_good" showname="Good Checksum: False" size="2" pos="40" show="0" value="fe34"/>
      <field name="tcp.checksum_bad" showname="Bad Checksum: False" size="2" pos="40" show="0" value="fe34"/>
    </field>
    <field name="tcp.options" showname="Options: (24 bytes)" size="24" pos="44" show="02:04:3f:d8:01:03:03:04:01:01:08:0a:11:4c:ea:90:00:00:00:00:04:02:00:00" value="02043fd8010303040101080a114cea900000000004020000">
      <field name="tcp.options.mss" showname="TCP MSS Option: True" hide="yes" size="4" pos="44" show="1" value="02043fd8"/>
      <field name="tcp.options.mss_val" showname="Maximum segment size: 16344 bytes" size="4" pos="44" show="16344" value="02043fd8"/>
      <field name="" show="NOP" size="1" pos="48" value="01"/>
      <field name="tcp.options.wscale" showname="TCP Window Scale Option: True" hide="yes" size="3" pos="49" show="1" value="030304"/>
      <field name="tcp.options.wscale_val" showname="Window scale: 4 (multiply by 16)" size="3" pos="49" show="4" value="030304"/>
      <field name="" show="NOP" size="1" pos="52" value="01"/>
      <field name="" show="NOP" size="1" pos="53" value="01"/>
      <field name="tcp.options.time_stamp" showname="TCP Time Stamp Option: True" hide="yes" size="10" pos="54" show="1" value="080a114cea9000000000"/>
      <field name="" show="Timestamps: TSval 290253456, TSecr 0" size="10" pos="54" value="080a114cea9000000000"/>
      <field name="tcp.options.sack_perm" showname="TCP SACK Permitted Option: True" size="2" pos="64" show="1" value="0402"/>
      <field name="" show="EOL" size="1" pos="66" value="00"/>
    </field>
  </proto>
</packet>


<packet>
  <proto name="geninfo" pos="0" showname="General information" size="68">
    <field name="num" pos="0" show="4" showname="Number" value="4" size="68"/>
    <field name="len" pos="0" show="68" showname="Frame Length" value="44" size="68"/>
    <field name="caplen" pos="0" show="68" showname="Captured Length" value="44" size="68"/>
    <field name="timestamp" pos="0" show="Jan  7, 2013 15:57:36.273718000 PST" showname="Captured Time" value="1357603056.273718000" size="68"/>
  </proto>
  <proto name="frame" showname="Frame 4: 68 bytes on wire (544 bits), 68 bytes captured (544 bits)" size="68" pos="0">
    <field name="frame.time" showname="Arrival Time: Jan  7, 2013 15:57:36.273718000 PST" size="0" pos="0" show="Jan  7, 2013 15:57:36.273718000"/>
    <field name="frame.time_epoch" showname="Epoch Time: 1357603056.273718000 seconds" size="0" pos="0" show="1357603056.273718000"/>
    <field name="frame.time_delta" showname="Time delta from previous captured frame: 0.000054000 seconds" size="0" pos="0" show="0.000054000"/>
    <field name="frame.time_delta_displayed" showname="Time delta from previous displayed frame: 0.000054000 seconds" size="0" pos="0" show="0.000054000"/>
    <field name="frame.time_relative" showname="Time since reference or first frame: 0.000133000 seconds" size="0" pos="0" show="0.000133000"/>
    <field name="frame.number" showname="Frame Number: 4" size="0" pos="0" show="4"/>
    <field name="frame.len" showname="Frame Length: 68 bytes (544 bits)" size="0" pos="0" show="68"/>
    <field name="frame.cap_len" showname="Capture Length: 68 bytes (544 bits)" size="0" pos="0" show="68"/>
    <field name="frame.marked" showname="Frame is marked: False" size="0" pos="0" show="0"/>
    <field name="frame.ignored" showname="Frame is ignored: False" size="0" pos="0" show="0"/>
    <field name="frame.protocols" showname="Protocols in frame: null:ip:tcp" size="0" pos="0" show="null:ip:tcp"/>
  </proto>
  <proto name="null" showname="Null/Loopback" size="4" pos="0">
    <field name="null.family" showname="Family: IP (2)" size="4" pos="0" show="2" value="02000000"/>
  </proto>
  <proto name="ip" showname="Internet Protocol, Src: 127.0.0.1 (127.0.0.1), Dst: 127.0.0.1 (127.0.0.1)" size="20" pos="4">
    <field name="ip.version" showname="Version: 4" size="1" pos="4" show="4" value="45"/>
    <field name="ip.hdr_len" showname="Header length: 20 bytes" size="1" pos="4" show="20" value="45"/>
    <field name="ip.dsfield" showname="Differentiated Services Field: 0x00 (DSCP 0x00: Default; ECN: 0x00)" size="1" pos="5" show="0" value="00">
      <field name="ip.dsfield.dscp" showname="0000 00.. = Differentiated Services Codepoint: Default (0x00)" size="1" pos="5" show="0x00" value="0" unmaskedvalue="00"/>
      <field name="ip.dsfield.ect" showname=".... ..0. = ECN-Capable Transport (ECT): 0" size="1" pos="5" show="0" value="0" unmaskedvalue="00"/>
      <field name="ip.dsfield.ce" showname=".... ...0 = ECN-CE: 0" size="1" pos="5" show="0" value="0" unmaskedvalue="00"/>
    </field>
    <field name="ip.len" showname="Total Length: 64" size="2" pos="6" show="64" value="0040"/>
    <field name="ip.id" showname="Identification: 0x7985 (31109)" size="2" pos="8" show="0x7985" value="7985"/>
    <field name="ip.flags" showname="Flags: 0x02 (Don&apos;t Fragment)" size="1" pos="10" show="0x02" value="40">
      <field name="ip.flags.rb" showname="0... .... = Reserved bit: Not set" size="1" pos="10" show="0" value="40"/>
      <field name="ip.flags.df" showname=".1.. .... = Don&apos;t fragment: Set" size="1" pos="10" show="1" value="40"/>
      <field name="ip.flags.mf" showname="..0. .... = More fragments: Not set" size="1" pos="10" show="0" value="40"/>
    </field>
    <field name="ip.frag_offset" showname="Fragment offset: 0" size="2" pos="10" show="0" value="4000"/>
    <field name="ip.ttl" showname="Time to live: 64" size="1" pos="12" show="64" value="40"/>
    <field name="ip.proto" showname="Protocol: TCP (6)" size="1" pos="13" show="6" value="06"/>
    <field name="ip.checksum" showname="Header checksum: 0x0000 [incorrect, should be 0xc330]" size="2" pos="14" show="0x0000" value="0000">
      <field name="ip.checksum_good" showname="Good: False" size="2" pos="14" show="0" value="0000"/>
      <field name="ip.checksum_bad" showname="Bad: True" size="2" pos="14" show="1" value="0000">
        <proto name="expert" showname="Expert Info (Error/Checksum): Bad checksum" size="0" pos="0">
          <field name="expert.message" showname="Message: Bad checksum" size="0" pos="0" show="Bad checksum"/>
          <field name="expert.severity" showname="Severity level: Error" size="0" pos="0" show="Error"/>
          <field name="expert.group" showname="Group: Checksum" size="0" pos="0" show="Checksum"/>
        </proto>
      </field>
    </field>
    <field name="ip.src" showname="Source: 127.0.0.1 (127.0.0.1)" size="4" pos="16" show="127.0.0.1" value="7f000001"/>
    <field name="ip.addr" showname="Source or Destination Address: 127.0.0.1 (127.0.0.1)" hide="yes" size="4" pos="16" show="127.0.0.1" value="7f000001"/>
    <field name="ip.src_host" showname="Source Host: 127.0.0.1" hide="yes" size="4" pos="16" show="127.0.0.1" value="7f000001"/>
    <field name="ip.host" showname="Source or Destination Host: 127.0.0.1" hide="yes" size="4" pos="16" show="127.0.0.1" value="7f000001"/>
    <field name="ip.dst" showname="Destination: 127.0.0.1 (127.0.0.1)" size="4" pos="20" show="127.0.0.1" value="7f000001"/>
    <field name="ip.addr" showname="Source or Destination Address: 127.0.0.1 (127.0.0.1)" hide="yes" size="4" pos="20" show="127.0.0.1" value="7f000001"/>
    <field name="ip.dst_host" showname="Destination Host: 127.0.0.1" hide="yes" size="4" pos="20" show="127.0.0.1" value="7f000001"/>
    <field name="ip.host" showname="Source or Destination Host: 127.0.0.1" hide="yes" size="4" pos="20" show="127.0.0.1" value="7f000001"/>
  </proto>
  <proto name="tcp" showname="Transmission Control Protocol, Src Port: afs3-fileserver (7000), Dst Port: 57321 (57321), Seq: 0, Ack: 1, Len: 0" size="44" pos="24">
    <field name="tcp.srcport" showname="Source port: afs3-fileserver (7000)" size="2" pos="24" show="7000" value="1b58"/>
    <field name="tcp.dstport" showname="Destination port: 57321 (57321)" size="2" pos="26" show="57321" value="dfe9"/>
    <field name="tcp.port" showname="Source or Destination Port: 7000" hide="yes" size="2" pos="24" show="7000" value="1b58"/>
    <field name="tcp.port" showname="Source or Destination Port: 57321" hide="yes" size="2" pos="26" show="57321" value="dfe9"/>
    <field name="tcp.stream" showname="Stream index: 1" size="0" pos="24" show="1"/>
    <field name="tcp.len" showname="TCP Segment Len: 0" hide="yes" size="1" pos="36" show="0" value="b0"/>
    <field name="tcp.seq" showname="Sequence number: 0    (relative sequence number)" size="4" pos="28" show="0" value="174cd72b"/>
    <field name="tcp.ack" showname="Acknowledgement number: 1    (relative ack number)" size="4" pos="32" show="1" value="1c85239f"/>
    <field name="tcp.hdr_len" showname="Header length: 44 bytes" size="1" pos="36" show="44" value="b0"/>
    <field name="tcp.flags" showname="Flags: 0x12 (SYN, ACK)" size="2" pos="36" show="0x12" value="b012">
      <field name="tcp.flags.res" showname="000. .... .... = Reserved: Not set" size="1" pos="36" show="0" value="0" unmaskedvalue="b0"/>
      <field name="tcp.flags.ns" showname="...0 .... .... = Nonce: Not set" size="1" pos="36" show="0" value="0" unmaskedvalue="b0"/>
      <field name="tcp.flags.cwr" showname=".... 0... .... = Congestion Window Reduced (CWR): Not set" size="1" pos="37" show="0" value="0" unmaskedvalue="12"/>
      <field name="tcp.flags.ecn" showname=".... .0.. .... = ECN-Echo: Not set" size="1" pos="37" show="0" value="0" unmaskedvalue="12"/>
      <field name="tcp.flags.urg" showname=".... ..0. .... = Urgent: Not set" size="1" pos="37" show="0" value="0" unmaskedvalue="12"/>
      <field name="tcp.flags.ack" showname=".... ...1 .... = Acknowledgement: Set" size="1" pos="37" show="1" value="1" unmaskedvalue="12"/>
      <field name="tcp.flags.push" showname=".... .... 0... = Push: Not set" size="1" pos="37" show="0" value="0" unmaskedvalue="12"/>
      <field name="tcp.flags.reset" showname=".... .... .0.. = Reset: Not set" size="1" pos="37" show="0" value="0" unmaskedvalue="12"/>
      <field name="tcp.flags.syn" showname=".... .... ..1. = Syn: Set" size="1" pos="37" show="1" value="1" unmaskedvalue="12">
        <proto name="expert" showname="Expert Info (Chat/Sequence): Connection establish acknowledge (SYN+ACK): server port afs3-fileserver" size="0" pos="0">
          <field name="expert.message" showname="Message: Connection establish acknowledge (SYN+ACK): server port afs3-fileserver" size="0" pos="0" show="Connection establish acknowledge (SYN+ACK): server port afs3-fileserver"/>
          <field name="expert.severity" showname="Severity level: Chat" size="0" pos="0" show="Chat"/>
          <field name="expert.group" showname="Group: Sequence" size="0" pos="0" show="Sequence"/>
        </proto>
      </field>
      <field name="tcp.flags.fin" showname=".... .... ...0 = Fin: Not set" size="1" pos="37" show="0" value="0" unmaskedvalue="12"/>
    </field>
    <field name="tcp.window_size" showname="Window size: 65535" size="2" pos="38" show="65535" value="ffff"/>
    <field name="tcp.checksum" showname="Checksum: 0xfe34 [validation disabled]" size="2" pos="40" show="0xfe34" value="fe34">
      <field name="tcp.checksum_good" showname="Good Checksum: False" size="2" pos="40" show="0" value="fe34"/>
      <field name="tcp.checksum_bad" showname="Bad Checksum: False" size="2" pos="40" show="0" value="fe34"/>
    </field>
    <field name="tcp.options" showname="Options: (24 bytes)" size="24" pos="44" show="02:04:3f:d8:01:03:03:04:01:01:08:0a:11:4c:ea:90:11:4c:ea:90:04:02:00:00" value="02043fd8010303040101080a114cea90114cea9004020000">
      <field name="tcp.options.mss" showname="TCP MSS Option: True" hide="yes" size="4" pos="44" show="1" value="02043fd8"/>
      <field name="tcp.options.mss_val" showname="Maximum segment size: 16344 bytes" size="4" pos="44" show="16344" value="02043fd8"/>
      <field name="" show="NOP" size="1" pos="48" value="01"/>
      <field name="tcp.options.wscale" showname="TCP Window Scale Option: True" hide="yes" size="3" pos="49" show="1" value="030304"/>
      <field name="tcp.options.wscale_val" showname="Window scale: 4 (multiply by 16)" size="3" pos="49" show="4" value="030304"/>
      <field name="" show="NOP" size="1" pos="52" value="01"/>
      <field name="" show="NOP" size="1" pos="53" value="01"/>
      <field name="tcp.options.time_stamp" showname="TCP Time Stamp Option: True" hide="yes" size="10" pos="54" show="1" value="080a114cea90114cea90"/>
      <field name="" show="Timestamps: TSval 290253456, TSecr 290253456" size="10" pos="54" value="080a114cea90114cea90"/>
      <field name="tcp.options.sack_perm" showname="TCP SACK Permitted Option: True" size="2" pos="64" show="1" value="0402"/>
      <field name="" show="EOL" size="1" pos="66" value="00"/>
    </field>
    <field name="" show="SEQ/ACK analysis" size="0" pos="24" value="">
      <field name="tcp.analysis.acks_frame" showname="This is an ACK to the segment in frame: 3" size="0" pos="24" show="3"/>
      <field name="tcp.analysis.ack_rtt" showname="The RTT to ACK the segment was: 0.000054000 seconds" size="0" pos="24" show="0.000054000"/>
    </field>
  </proto>
</packet>


<packet>
  <proto name="geninfo" pos="0" showname="General information" size="56">
    <field name="num" pos="0" show="5" showname="Number" value="5" size="56"/>
    <field name="len" pos="0" show="56" showname="Frame Length" value="38" size="56"/>
    <field name="caplen" pos="0" show="56" showname="Captured Length" value="38" size="56"/>
    <field name="timestamp" pos="0" show="Jan  7, 2013 15:57:36.273727000 PST" showname="Captured Time" value="1357603056.273727000" size="56"/>
  </proto>
  <proto name="frame" showname="Frame 5: 56 bytes on wire (448 bits), 56 bytes captured (448 bits)" size="56" pos="0">
    <field name="frame.time" showname="Arrival Time: Jan  7, 2013 15:57:36.273727000 PST" size="0" pos="0" show="Jan  7, 2013 15:57:36.273727000"/>
    <field name="frame.time_epoch" showname="Epoch Time: 1357603056.273727000 seconds" size="0" pos="0" show="1357603056.273727000"/>
    <field name="frame.time_delta" showname="Time delta from previous captured frame: 0.000009000 seconds" size="0" pos="0" show="0.000009000"/>
    <field name="frame.time_delta_displayed" showname="Time delta from previous displayed frame: 0.000009000 seconds" size="0" pos="0" show="0.000009000"/>
    <field name="frame.time_relative" showname="Time since reference or first frame: 0.000142000 seconds" size="0" pos="0" show="0.000142000"/>
    <field name="frame.number" showname="Frame Number: 5" size="0" pos="0" show="5"/>
    <field name="frame.len" showname="Frame Length: 56 bytes (448 bits)" size="0" pos="0" show="56"/>
    <field name="frame.cap_len" showname="Capture Length: 56 bytes (448 bits)" size="0" pos="0" show="56"/>
    <field name="frame.marked" showname="Frame is marked: False" size="0" pos="0" show="0"/>
    <field name="frame.ignored" showname="Frame is ignored: False" size="0" pos="0" show="0"/>
    <field name="frame.protocols" showname="Protocols in frame: null:ip:tcp" size="0" pos="0" show="null:ip:tcp"/>
  </proto>
  <proto name="null" showname="Null/Loopback" size="4" pos="0">
    <field name="null.family" showname="Family: IP (2)" size="4" pos="0" show="2" value="02000000"/>
  </proto>
  <proto name="ip" showname="Internet Protocol, Src: 127.0.0.1 (127.0.0.1), Dst: 127.0.0.1 (127.0.0.1)" size="20" pos="4">
    <field name="ip.version" showname="Version: 4" size="1" pos="4" show="4" value="45"/>
    <field name="ip.hdr_len" showname="Header length: 20 bytes" size="1" pos="4" show="20" value="45"/>
    <field name="ip.dsfield" showname="Differentiated Services Field: 0x00 (DSCP 0x00: Default; ECN: 0x00)" size="1" pos="5" show="0" value="00">
      <field name="ip.dsfield.dscp" showname="0000 00.. = Differentiated Services Codepoint: Default (0x00)" size="1" pos="5" show="0x00" value="0" unmaskedvalue="00"/>
      <field name="ip.dsfield.ect" showname=".... ..0. = ECN-Capable Transport (ECT): 0" size="1" pos="5" show="0" value="0" unmaskedvalue="00"/>
      <field name="ip.dsfield.ce" showname=".... ...0 = ECN-CE: 0" size="1" pos="5" show="0" value="0" unmaskedvalue="00"/>
    </field>
    <field name="ip.len" showname="Total Length: 52" size="2" pos="6" show="52" value="0034"/>
    <field name="ip.id" showname="Identification: 0xf2de (62174)" size="2" pos="8" show="0xf2de" value="f2de"/>
    <field name="ip.flags" showname="Flags: 0x02 (Don&apos;t Fragment)" size="1" pos="10" show="0x02" value="40">
      <field name="ip.flags.rb" showname="0... .... = Reserved bit: Not set" size="1" pos="10" show="0" value="40"/>
      <field name="ip.flags.df" showname=".1.. .... = Don&apos;t fragment: Set" size="1" pos="10" show="1" value="40"/>
      <field name="ip.flags.mf" showname="..0. .... = More fragments: Not set" size="1" pos="10" show="0" value="40"/>
    </field>
    <field name="ip.frag_offset" showname="Fragment offset: 0" size="2" pos="10" show="0" value="4000"/>
    <field name="ip.ttl" showname="Time to live: 64" size="1" pos="12" show="64" value="40"/>
    <field name="ip.proto" showname="Protocol: TCP (6)" size="1" pos="13" show="6" value="06"/>
    <field name="ip.checksum" showname="Header checksum: 0x0000 [incorrect, should be 0x49e3]" size="2" pos="14" show="0x0000" value="0000">
      <field name="ip.checksum_good" showname="Good: False" size="2" pos="14" show="0" value="0000"/>
      <field name="ip.checksum_bad" showname="Bad: True" size="2" pos="14" show="1" value="0000">
        <proto name="expert" showname="Expert Info (Error/Checksum): Bad checksum" size="0" pos="0">
          <field name="expert.message" showname="Message: Bad checksum" size="0" pos="0" show="Bad checksum"/>
          <field name="expert.severity" showname="Severity level: Error" size="0" pos="0" show="Error"/>
          <field name="expert.group" showname="Group: Checksum" size="0" pos="0" show="Checksum"/>
        </proto>
      </field>
    </field>
    <field name="ip.src" showname="Source: 127.0.0.1 (127.0.0.1)" size="4" pos="16" show="127.0.0.1" value="7f000001"/>
    <field name="ip.addr" showname="Source or Destination Address: 127.0.0.1 (127.0.0.1)" hide="yes" size="4" pos="16" show="127.0.0.1" value="7f000001"/>
    <field name="ip.src_host" showname="Source Host: 127.0.0.1" hide="yes" size="4" pos="16" show="127.0.0.1" value="7f000001"/>
    <field name="ip.host" showname="Source or Destination Host: 127.0.0.1" hide="yes" size="4" pos="16" show="127.0.0.1" value="7f000001"/>
    <field name="ip.dst" showname="Destination: 127.0.0.1 (127.0.0.1)" size="4" pos="20" show="127.0.0.1" value="7f000001"/>
    <field name="ip.addr" showname="Source or Destination Address: 127.0.0.1 (127.0.0.1)" hide="yes" size="4" pos="20" show="127.0.0.1" value="7f000001"/>
    <field name="ip.dst_host" showname="Destination Host: 127.0.0.1" hide="yes" size="4" pos="20" show="127.0.0.1" value="7f000001"/>
    <field name="ip.host" showname="Source or Destination Host: 127.0.0.1" hide="yes" size="4" pos="20" show="127.0.0.1" value="7f000001"/>
  </proto>
  <proto name="tcp" showname="Transmission Control Protocol, Src Port: 57321 (57321), Dst Port: afs3-fileserver (7000), Seq: 1, Ack: 1, Len: 0" size="32" pos="24">
    <field name="tcp.srcport" showname="Source port: 57321 (57321)" size="2" pos="24" show="57321" value="dfe9"/>
    <field name="tcp.dstport" showname="Destination port: afs3-fileserver (7000)" size="2" pos="26" show="7000" value="1b58"/>
    <field name="tcp.port" showname="Source or Destination Port: 57321" hide="yes" size="2" pos="24" show="57321" value="dfe9"/>
    <field name="tcp.port" showname="Source or Destination Port: 7000" hide="yes" size="2" pos="26" show="7000" value="1b58"/>
    <field name="tcp.stream" showname="Stream index: 1" size="0" pos="24" show="1"/>
    <field name="tcp.len" showname="TCP Segment Len: 0" hide="yes" size="1" pos="36" show="0" value="80"/>
    <field name="tcp.seq" showname="Sequence number: 1    (relative sequence number)" size="4" pos="28" show="1" value="1c85239f"/>
    <field name="tcp.ack" showname="Acknowledgement number: 1    (relative ack number)" size="4" pos="32" show="1" value="174cd72c"/>
    <field name="tcp.hdr_len" showname="Header length: 32 bytes" size="1" pos="36" show="32" value="80"/>
    <field name="tcp.flags" showname="Flags: 0x10 (ACK)" size="2" pos="36" show="0x10" value="8010">
      <field name="tcp.flags.res" showname="000. .... .... = Reserved: Not set" size="1" pos="36" show="0" value="0" unmaskedvalue="80"/>
      <field name="tcp.flags.ns" showname="...0 .... .... = Nonce: Not set" size="1" pos="36" show="0" value="0" unmaskedvalue="80"/>
      <field name="tcp.flags.cwr" showname=".... 0... .... = Congestion Window Reduced (CWR): Not set" size="1" pos="37" show="0" value="0" unmaskedvalue="10"/>
      <field name="tcp.flags.ecn" showname=".... .0.. .... = ECN-Echo: Not set" size="1" pos="37" show="0" value="0" unmaskedvalue="10"/>
      <field name="tcp.flags.urg" showname=".... ..0. .... = Urgent: Not set" size="1" pos="37" show="0" value="0" unmaskedvalue="10"/>
      <field name="tcp.flags.ack" showname=".... ...1 .... = Acknowledgement: Set" size="1" pos="37" show="1" value="1" unmaskedvalue="10"/>
      <field name="tcp.flags.push" showname=".... .... 0... = Push: Not set" size="1" pos="37" show="0" value="0" unmaskedvalue="10"/>
      <field name="tcp.flags.reset" showname=".... .... .0.. = Reset: Not set" size="1" pos="37" show="0" value="0" unmaskedvalue="10"/>
      <field name="tcp.flags.syn" showname=".... .... ..0. = Syn: Not set" size="1" pos="37" show="0" value="0" unmaskedvalue="10"/>
      <field name="tcp.flags.fin" showname=".... .... ...0 = Fin: Not set" size="1" pos="37" show="0" value="0" unmaskedvalue="10"/>
    </field>
    <field name="tcp.window_size" showname="Window size: 146976 (scaled)" size="2" pos="38" show="146976" value="23e2"/>
    <field name="tcp.checksum" showname="Checksum: 0xfe28 [validation disabled]" size="2" pos="40" show="0xfe28" value="fe28">
      <field name="tcp.checksum_good" showname="Good Checksum: False" size="2" pos="40" show="0" value="fe28"/>
      <field name="tcp.checksum_bad" showname="Bad Checksum: False" size="2" pos="40" show="0" value="fe28"/>
    </field>
    <field name="tcp.options" showname="Options: (12 bytes)" size="12" pos="44" show="01:01:08:0a:11:4c:ea:90:11:4c:ea:90" value="0101080a114cea90114cea90">
      <field name="" show="NOP" size="1" pos="44" value="01"/>
      <field name="" show="NOP" size="1" pos="45" value="01"/>
      <field name="tcp.options.time_stamp" showname="TCP Time Stamp Option: True" hide="yes" size="10" pos="46" show="1" value="080a114cea90114cea90"/>
      <field name="" show="Timestamps: TSval 290253456, TSecr 290253456" size="10" pos="46" value="080a114cea90114cea90"/>
    </field>
    <field name="" show="SEQ/ACK analysis" size="0" pos="24" value="">
      <field name="tcp.analysis.acks_frame" showname="This is an ACK to the segment in frame: 4" size="0" pos="24" show="4"/>
      <field name="tcp.analysis.ack_rtt" showname="The RTT to ACK the segment was: 0.000009000 seconds" size="0" pos="24" show="0.000009000"/>
    </field>
  </proto>
</packet>


<packet>
  <proto name="geninfo" pos="0" showname="General information" size="56">
    <field name="num" pos="0" show="6" showname="Number" value="6" size="56"/>
    <field name="len" pos="0" show="56" showname="Frame Length" value="38" size="56"/>
    <field name="caplen" pos="0" show="56" showname="Captured Length" value="38" size="56"/>
    <field name="timestamp" pos="0" show="Jan  7, 2013 15:57:36.273738000 PST" showname="Captured Time" value="1357603056.273738000" size="56"/>
  </proto>
  <proto name="frame" showname="Frame 6: 56 bytes on wire (448 bits), 56 bytes captured (448 bits)" size="56" pos="0">
    <field name="frame.time" showname="Arrival Time: Jan  7, 2013 15:57:36.273738000 PST" size="0" pos="0" show="Jan  7, 2013 15:57:36.273738000"/>
    <field name="frame.time_epoch" showname="Epoch Time: 1357603056.273738000 seconds" size="0" pos="0" show="1357603056.273738000"/>
    <field name="frame.time_delta" showname="Time delta from previous captured frame: 0.000011000 seconds" size="0" pos="0" show="0.000011000"/>
    <field name="frame.time_delta_displayed" showname="Time delta from previous displayed frame: 0.000011000 seconds" size="0" pos="0" show="0.000011000"/>
    <field name="frame.time_relative" showname="Time since reference or first frame: 0.000153000 seconds" size="0" pos="0" show="0.000153000"/>
    <field name="frame.number" showname="Frame Number: 6" size="0" pos="0" show="6"/>
    <field name="frame.len" showname="Frame Length: 56 bytes (448 bits)" size="0" pos="0" show="56"/>
    <field name="frame.cap_len" showname="Capture Length: 56 bytes (448 bits)" size="0" pos="0" show="56"/>
    <field name="frame.marked" showname="Frame is marked: False" size="0" pos="0" show="0"/>
    <field name="frame.ignored" showname="Frame is ignored: False" size="0" pos="0" show="0"/>
    <field name="frame.protocols" showname="Protocols in frame: null:ip:tcp" size="0" pos="0" show="null:ip:tcp"/>
  </proto>
  <proto name="null" showname="Null/Loopback" size="4" pos="0">
    <field name="null.family" showname="Family: IP (2)" size="4" pos="0" show="2" value="02000000"/>
  </proto>
  <proto name="ip" showname="Internet Protocol, Src: 127.0.0.1 (127.0.0.1), Dst: 127.0.0.1 (127.0.0.1)" size="20" pos="4">
    <field name="ip.version" showname="Version: 4" size="1" pos="4" show="4" value="45"/>
    <field name="ip.hdr_len" showname="Header length: 20 bytes" size="1" pos="4" show="20" value="45"/>
    <field name="ip.dsfield" showname="Differentiated Services Field: 0x00 (DSCP 0x00: Default; ECN: 0x00)" size="1" pos="5" show="0" value="00">
      <field name="ip.dsfield.dscp" showname="0000 00.. = Differentiated Services Codepoint: Default (0x00)" size="1" pos="5" show="0x00" value="0" unmaskedvalue="00"/>
      <field name="ip.dsfield.ect" showname=".... ..0. = ECN-Capable Transport (ECT): 0" size="1" pos="5" show="0" value="0" unmaskedvalue="00"/>
      <field name="ip.dsfield.ce" showname=".... ...0 = ECN-CE: 0" size="1" pos="5" show="0" value="0" unmaskedvalue="00"/>
    </field>
    <field name="ip.len" showname="Total Length: 52" size="2" pos="6" show="52" value="0034"/>
    <field name="ip.id" showname="Identification: 0x9bf5 (39925)" size="2" pos="8" show="0x9bf5" value="9bf5"/>
    <field name="ip.flags" showname="Flags: 0x02 (Don&apos;t Fragment)" size="1" pos="10" show="0x02" value="40">
      <field name="ip.flags.rb" showname="0... .... = Reserved bit: Not set" size="1" pos="10" show="0" value="40"/>
      <field name="ip.flags.df" showname=".1.. .... = Don&apos;t fragment: Set" size="1" pos="10" show="1" value="40"/>
      <field name="ip.flags.mf" showname="..0. .... = More fragments: Not set" size="1" pos="10" show="0" value="40"/>
    </field>
    <field name="ip.frag_offset" showname="Fragment offset: 0" size="2" pos="10" show="0" value="4000"/>
    <field name="ip.ttl" showname="Time to live: 64" size="1" pos="12" show="64" value="40"/>
    <field name="ip.proto" showname="Protocol: TCP (6)" size="1" pos="13" show="6" value="06"/>
    <field name="ip.checksum" showname="Header checksum: 0x0000 [incorrect, should be 0xa0cc]" size="2" pos="14" show="0x0000" value="0000">
      <field name="ip.checksum_good" showname="Good: False" size="2" pos="14" show="0" value="0000"/>
      <field name="ip.checksum_bad" showname="Bad: True" size="2" pos="14" show="1" value="0000">
        <proto name="expert" showname="Expert Info (Error/Checksum): Bad checksum" size="0" pos="0">
          <field name="expert.message" showname="Message: Bad checksum" size="0" pos="0" show="Bad checksum"/>
          <field name="expert.severity" showname="Severity level: Error" size="0" pos="0" show="Error"/>
          <field name="expert.group" showname="Group: Checksum" size="0" pos="0" show="Checksum"/>
        </proto>
      </field>
    </field>
    <field name="ip.src" showname="Source: 127.0.0.1 (127.0.0.1)" size="4" pos="16" show="127.0.0.1" value="7f000001"/>
    <field name="ip.addr" showname="Source or Destination Address: 127.0.0.1 (127.0.0.1)" hide="yes" size="4" pos="16" show="127.0.0.1" value="7f000001"/>
    <field name="ip.src_host" showname="Source Host: 127.0.0.1" hide="yes" size="4" pos="16" show="127.0.0.1" value="7f000001"/>
    <field name="ip.host" showname="Source or Destination Host: 127.0.0.1" hide="yes" size="4" pos="16" show="127.0.0.1" value="7f000001"/>
    <field name="ip.dst" showname="Destination: 127.0.0.1 (127.0.0.1)" size="4" pos="20" show="127.0.0.1" value="7f000001"/>
    <field name="ip.addr" showname="Source or Destination Address: 127.0.0.1 (127.0.0.1)" hide="yes" size="4" pos="20" show="127.0.0.1" value="7f000001"/>
    <field name="ip.dst_host" showname="Destination Host: 127.0.0.1" hide="yes" size="4" pos="20" show="127.0.0.1" value="7f000001"/>
    <field name="ip.host" showname="Source or Destination Host: 127.0.0.1" hide="yes" size="4" pos="20" show="127.0.0.1" value="7f000001"/>
  </proto>
  <proto name="tcp" showname="Transmission Control Protocol, Src Port: afs3-fileserver (7000), Dst Port: 57321 (57321), Seq: 1, Ack: 1, Len: 0" size="32" pos="24">
    <field name="tcp.srcport" showname="Source port: afs3-fileserver (7000)" size="2" pos="24" show="7000" value="1b58"/>
    <field name="tcp.dstport" showname="Destination port: 57321 (57321)" size="2" pos="26" show="57321" value="dfe9"/>
    <field name="tcp.port" showname="Source or Destination Port: 7000" hide="yes" size="2" pos="24" show="7000" value="1b58"/>
    <field name="tcp.port" showname="Source or Destination Port: 57321" hide="yes" size="2" pos="26" show="57321" value="dfe9"/>
    <field name="tcp.stream" showname="Stream index: 1" size="0" pos="24" show="1"/>
    <field name="tcp.len" showname="TCP Segment Len: 0" hide="yes" size="1" pos="36" show="0" value="80"/>
    <field name="tcp.seq" showname="Sequence number: 1    (relative sequence number)" size="4" pos="28" show="1" value="174cd72c"/>
    <field name="tcp.ack" showname="Acknowledgement number: 1    (relative ack number)" size="4" pos="32" show="1" value="1c85239f"/>
    <field name="tcp.hdr_len" showname="Header length: 32 bytes" size="1" pos="36" show="32" value="80"/>
    <field name="tcp.flags" showname="Flags: 0x10 (ACK)" size="2" pos="36" show="0x10" value="8010">
      <field name="tcp.flags.res" showname="000. .... .... = Reserved: Not set" size="1" pos="36" show="0" value="0" unmaskedvalue="80"/>
      <field name="tcp.flags.ns" showname="...0 .... .... = Nonce: Not set" size="1" pos="36" show="0" value="0" unmaskedvalue="80"/>
      <field name="tcp.flags.cwr" showname=".... 0... .... = Congestion Window Reduced (CWR): Not set" size="1" pos="37" show="0" value="0" unmaskedvalue="10"/>
      <field name="tcp.flags.ecn" showname=".... .0.. .... = ECN-Echo: Not set" size="1" pos="37" show="0" value="0" unmaskedvalue="10"/>
      <field name="tcp.flags.urg" showname=".... ..0. .... = Urgent: Not set" size="1" pos="37" show="0" value="0" unmaskedvalue="10"/>
      <field name="tcp.flags.ack" showname=".... ...1 .... = Acknowledgement: Set" size="1" pos="37" show="1" value="1" unmaskedvalue="10"/>
      <field name="tcp.flags.push" showname=".... .... 0... = Push: Not set" size="1" pos="37" show="0" value="0" unmaskedvalue="10"/>
      <field name="tcp.flags.reset" showname=".... .... .0.. = Reset: Not set" size="1" pos="37" show="0" value="0" unmaskedvalue="10"/>
      <field name="tcp.flags.syn" showname=".... .... ..0. = Syn: Not set" size="1" pos="37" show="0" value="0" unmaskedvalue="10"/>
      <field name="tcp.flags.fin" showname=".... .... ...0 = Fin: Not set" size="1" pos="37" show="0" value="0" unmaskedvalue="10"/>
    </field>
    <field name="tcp.window_size" showname="Window size: 146976 (scaled)" size="2" pos="38" show="146976" value="23e2"/>
    <field name="tcp.checksum" showname="Checksum: 0xfe28 [validation disabled]" size="2" pos="40" show="0xfe28" value="fe28">
      <field name="tcp.checksum_good" showname="Good Checksum: False" size="2" pos="40" show="0" value="fe28"/>
      <field name="tcp.checksum_bad" showname="Bad Checksum: False" size="2" pos="40" show="0" value="fe28"/>
    </field>
    <field name="tcp.options" showname="Options: (12 bytes)" size="12" pos="44" show="01:01:08:0a:11:4c:ea:90:11:4c:ea:90" value="0101080a114cea90114cea90">
      <field name="" show="NOP" size="1" pos="44" value="01"/>
      <field name="" show="NOP" size="1" pos="45" value="01"/>
      <field name="tcp.options.time_stamp" showname="TCP Time Stamp Option: True" hide="yes" size="10" pos="46" show="1" value="080a114cea90114cea90"/>
      <field name="" show="Timestamps: TSval 290253456, TSecr 290253456" size="10" pos="46" value="080a114cea90114cea90"/>
    </field>
    <field name="" show="SEQ/ACK analysis" size="0" pos="24" value="">
      <field name="tcp.analysis.flags" showname="TCP Analysis Flags" size="0" pos="24" show="" value="">
        <field name="tcp.analysis.window_update" showname="This is a tcp window update" size="0" pos="24" show="" value="">
          <proto name="expert" showname="Expert Info (Chat/Sequence): Window update" size="0" pos="0">
            <field name="expert.message" showname="Message: Window update" size="0" pos="0" show="Window update"/>
            <field name="expert.severity" showname="Severity level: Chat" size="0" pos="0" show="Chat"/>
            <field name="expert.group" showname="Group: Sequence" size="0" pos="0" show="Sequence"/>
          </proto>
        </field>
      </field>
    </field>
  </proto>
</packet>


<packet>
  <proto name="geninfo" pos="0" showname="General information" size="68">
    <field name="num" pos="0" show="7" showname="Number" value="7" size="68"/>
    <field name="len" pos="0" show="68" showname="Frame Length" value="44" size="68"/>
    <field name="caplen" pos="0" show="68" showname="Captured Length" value="44" size="68"/>
    <field name="timestamp" pos="0" show="Jan  7, 2013 15:57:36.273951000 PST" showname="Captured Time" value="1357603056.273951000" size="68"/>
  </proto>
  <proto name="frame" showname="Frame 7: 68 bytes on wire (544 bits), 68 bytes captured (544 bits)" size="68" pos="0">
    <field name="frame.time" showname="Arrival Time: Jan  7, 2013 15:57:36.273951000 PST" size="0" pos="0" show="Jan  7, 2013 15:57:36.273951000"/>
    <field name="frame.time_epoch" showname="Epoch Time: 1357603056.273951000 seconds" size="0" pos="0" show="1357603056.273951000"/>
    <field name="frame.time_delta" showname="Time delta from previous captured frame: 0.000213000 seconds" size="0" pos="0" show="0.000213000"/>
    <field name="frame.time_delta_displayed" showname="Time delta from previous displayed frame: 0.000213000 seconds" size="0" pos="0" show="0.000213000"/>
    <field name="frame.time_relative" showname="Time since reference or first frame: 0.000366000 seconds" size="0" pos="0" show="0.000366000"/>
    <field name="frame.number" showname="Frame Number: 7" size="0" pos="0" show="7"/>
    <field name="frame.len" showname="Frame Length: 68 bytes (544 bits)" size="0" pos="0" show="68"/>
    <field name="frame.cap_len" showname="Capture Length: 68 bytes (544 bits)" size="0" pos="0" show="68"/>
    <field name="frame.marked" showname="Frame is marked: False" size="0" pos="0" show="0"/>
    <field name="frame.ignored" showname="Frame is ignored: False" size="0" pos="0" show="0"/>
    <field name="frame.protocols" showname="Protocols in frame: null:ip:tcp:gryphon" size="0" pos="0" show="null:ip:tcp:gryphon"/>
  </proto>
  <proto name="null" showname="Null/Loopback" size="4" pos="0">
    <field name="null.family" showname="Family: IP (2)" size="4" pos="0" show="2" value="02000000"/>
  </proto>
  <proto name="ip" showname="Internet Protocol, Src: 127.0.0.1 (127.0.0.1), Dst: 127.0.0.1 (127.0.0.1)" size="20" pos="4">
    <field name="ip.version" showname="Version: 4" size="1" pos="4" show="4" value="45"/>
    <field name="ip.hdr_len" showname="Header length: 20 bytes" size="1" pos="4" show="20" value="45"/>
    <field name="ip.dsfield" showname="Differentiated Services Field: 0x00 (DSCP 0x00: Default; ECN: 0x00)" size="1" pos="5" show="0" value="00">
      <field name="ip.dsfield.dscp" showname="0000 00.. = Differentiated Services Codepoint: Default (0x00)" size="1" pos="5" show="0x00" value="0" unmaskedvalue="00"/>
      <field name="ip.dsfield.ect" showname=".... ..0. = ECN-Capable Transport (ECT): 0" size="1" pos="5" show="0" value="0" unmaskedvalue="00"/>
      <field name="ip.dsfield.ce" showname=".... ...0 = ECN-CE: 0" size="1" pos="5" show="0" value="0" unmaskedvalue="00"/>
    </field>
    <field name="ip.len" showname="Total Length: 64" size="2" pos="6" show="64" value="0040"/>
    <field name="ip.id" showname="Identification: 0x46fe (18174)" size="2" pos="8" show="0x46fe" value="46fe"/>
    <field name="ip.flags" showname="Flags: 0x02 (Don&apos;t Fragment)" size="1" pos="10" show="0x02" value="40">
      <field name="ip.flags.rb" showname="0... .... = Reserved bit: Not set" size="1" pos="10" show="0" value="40"/>
      <field name="ip.flags.df" showname=".1.. .... = Don&apos;t fragment: Set" size="1" pos="10" show="1" value="40"/>
      <field name="ip.flags.mf" showname="..0. .... = More fragments: Not set" size="1" pos="10" show="0" value="40"/>
    </field>
    <field name="ip.frag_offset" showname="Fragment offset: 0" size="2" pos="10" show="0" value="4000"/>
    <field name="ip.ttl" showname="Time to live: 64" size="1" pos="12" show="64" value="40"/>
    <field name="ip.proto" showname="Protocol: TCP (6)" size="1" pos="13" show="6" value="06"/>
    <field name="ip.checksum" showname="Header checksum: 0x0000 [incorrect, should be 0xf5b7]" size="2" pos="14" show="0x0000" value="0000">
      <field name="ip.checksum_good" showname="Good: False" size="2" pos="14" show="0" value="0000"/>
      <field name="ip.checksum_bad" showname="Bad: True" size="2" pos="14" show="1" value="0000">
        <proto name="expert" showname="Expert Info (Error/Checksum): Bad checksum" size="0" pos="0">
          <field name="expert.message" showname="Message: Bad checksum" size="0" pos="0" show="Bad checksum"/>
          <field name="expert.severity" showname="Severity level: Error" size="0" pos="0" show="Error"/>
          <field name="expert.group" showname="Group: Checksum" size="0" pos="0" show="Checksum"/>
        </proto>
      </field>
    </field>
    <field name="ip.src" showname="Source: 127.0.0.1 (127.0.0.1)" size="4" pos="16" show="127.0.0.1" value="7f000001"/>
    <field name="ip.addr" showname="Source or Destination Address: 127.0.0.1 (127.0.0.1)" hide="yes" size="4" pos="16" show="127.0.0.1" value="7f000001"/>
    <field name="ip.src_host" showname="Source Host: 127.0.0.1" hide="yes" size="4" pos="16" show="127.0.0.1" value="7f000001"/>
    <field name="ip.host" showname="Source or Destination Host: 127.0.0.1" hide="yes" size="4" pos="16" show="127.0.0.1" value="7f000001"/>
    <field name="ip.dst" showname="Destination: 127.0.0.1 (127.0.0.1)" size="4" pos="20" show="127.0.0.1" value="7f000001"/>
    <field name="ip.addr" showname="Source or Destination Address: 127.0.0.1 (127.0.0.1)" hide="yes" size="4" pos="20" show="127.0.0.1" value="7f000001"/>
    <field name="ip.dst_host" showname="Destination Host: 127.0.0.1" hide="yes" size="4" pos="20" show="127.0.0.1" value="7f000001"/>
    <field name="ip.host" showname="Source or Destination Host: 127.0.0.1" hide="yes" size="4" pos="20" show="127.0.0.1" value="7f000001"/>
  </proto>
  <proto name="tcp" showname="Transmission Control Protocol, Src Port: afs3-fileserver (7000), Dst Port: 57321 (57321), Seq: 1, Ack: 1, Len: 12" size="32" pos="24">
    <field name="tcp.srcport" showname="Source port: afs3-fileserver (7000)" size="2" pos="24" show="7000" value="1b58"/>
    <field name="tcp.dstport" showname="Destination port: 57321 (57321)" size="2" pos="26" show="57321" value="dfe9"/>
    <field name="tcp.port" showname="Source or Destination Port: 7000" hide="yes" size="2" pos="24" show="7000" value="1b58"/>
    <field name="tcp.port" showname="Source or Destination Port: 57321" hide="yes" size="2" pos="26" show="57321" value="dfe9"/>
    <field name="tcp.stream" showname="Stream index: 1" size="0" pos="24" show="1"/>
    <field name="tcp.len" showname="TCP Segment Len: 12" hide="yes" size="1" pos="36" show="12" value="80"/>
    <field name="tcp.seq" showname="Sequence number: 1    (relative sequence number)" size="4" pos="28" show="1" value="174cd72c"/>
    <field name="tcp.nxtseq" showname="Next sequence number: 13    (relative sequence number)" size="0" pos="24" show="13"/>
    <field name="tcp.ack" showname="Acknowledgement number: 1    (relative ack number)" size="4" pos="32" show="1" value="1c85239f"/>
    <field name="tcp.hdr_len" showname="Header length: 32 bytes" size="1" pos="36" show="32" value="80"/>
    <field name="tcp.flags" showname="Flags: 0x18 (PSH, ACK)" size="2" pos="36" show="0x18" value="8018">
      <field name="tcp.flags.res" showname="000. .... .... = Reserved: Not set" size="1" pos="36" show="0" value="0" unmaskedvalue="80"/>
      <field name="tcp.flags.ns" showname="...0 .... .... = Nonce: Not set" size="1" pos="36" show="0" value="0" unmaskedvalue="80"/>
      <field name="tcp.flags.cwr" showname=".... 0... .... = Congestion Window Reduced (CWR): Not set" size="1" pos="37" show="0" value="0" unmaskedvalue="18"/>
      <field name="tcp.flags.ecn" showname=".... .0.. .... = ECN-Echo: Not set" size="1" pos="37" show="0" value="0" unmaskedvalue="18"/>
      <field name="tcp.flags.urg" showname=".... ..0. .... = Urgent: Not set" size="1" pos="37" show="0" value="0" unmaskedvalue="18"/>
      <field name="tcp.flags.ack" showname=".... ...1 .... = Acknowledgement: Set" size="1" pos="37" show="1" value="1" unmaskedvalue="18"/>
      <field name="tcp.flags.push" showname=".... .... 1... = Push: Set" size="1" pos="37" show="1" value="1" unmaskedvalue="18"/>
      <field name="tcp.flags.reset" showname=".... .... .0.. = Reset: Not set" size="1" pos="37" show="0" value="0" unmaskedvalue="18"/>
      <field name="tcp.flags.syn" showname=".... .... ..0. = Syn: Not set" size="1" pos="37" show="0" value="0" unmaskedvalue="18"/>
      <field name="tcp.flags.fin" showname=".... .... ...0 = Fin: Not set" size="1" pos="37" show="0" value="0" unmaskedvalue="18"/>
    </field>
    <field name="tcp.window_size" showname="Window size: 146976 (scaled)" size="2" pos="38" show="146976" value="23e2"/>
    <field name="tcp.checksum" showname="Checksum: 0xfe34 [validation disabled]" size="2" pos="40" show="0xfe34" value="fe34">
      <field name="tcp.checksum_good" showname="Good Checksum: False" size="2" pos="40" show="0" value="fe34"/>
      <field name="tcp.checksum_bad" showname="Bad Checksum: False" size="2" pos="40" show="0" value="fe34"/>
    </field>
    <field name="tcp.options" showname="Options: (12 bytes)" size="12" pos="44" show="01:01:08:0a:11:4c:ea:90:11:4c:ea:90" value="0101080a114cea90114cea90">
      <field name="" show="NOP" size="1" pos="44" value="01"/>
      <field name="" show="NOP" size="1" pos="45" value="01"/>
      <field name="tcp.options.time_stamp" showname="TCP Time Stamp Option: True" hide="yes" size="10" pos="46" show="1" value="080a114cea90114cea90"/>
      <field name="" show="Timestamps: TSval 290253456, TSecr 290253456" size="10" pos="46" value="080a114cea90114cea90"/>
    </field>
    <field name="" show="SEQ/ACK analysis" size="0" pos="24" value="">
      <field name="tcp.analysis.bytes_in_flight" showname="Number of bytes in flight: 12" size="0" pos="24" show="12"/>
    </field>
    <field name="" show="PDU Size: 28456 cut short at 12" size="12" pos="56" value="48656c6c6f20526f626f740a"/>
    <field name="" show="TCP segment data (12 bytes)" size="12" pos="56" value="48656c6c6f20526f626f740a"/>
  </proto>
</packet>


<packet>
  <proto name="geninfo" pos="0" showname="General information" size="56">
    <field name="num" pos="0" show="8" showname="Number" value="8" size="56"/>
    <field name="len" pos="0" show="56" showname="Frame Length" value="38" size="56"/>
    <field name="caplen" pos="0" show="56" showname="Captured Length" value="38" size="56"/>
    <field name="timestamp" pos="0" show="Jan  7, 2013 15:57:36.273972000 PST" showname="Captured Time" value="1357603056.273972000" size="56"/>
  </proto>
  <proto name="frame" showname="Frame 8: 56 bytes on wire (448 bits), 56 bytes captured (448 bits)" size="56" pos="0">
    <field name="frame.time" showname="Arrival Time: Jan  7, 2013 15:57:36.273972000 PST" size="0" pos="0" show="Jan  7, 2013 15:57:36.273972000"/>
    <field name="frame.time_epoch" showname="Epoch Time: 1357603056.273972000 seconds" size="0" pos="0" show="1357603056.273972000"/>
    <field name="frame.time_delta" showname="Time delta from previous captured frame: 0.000021000 seconds" size="0" pos="0" show="0.000021000"/>
    <field name="frame.time_delta_displayed" showname="Time delta from previous displayed frame: 0.000021000 seconds" size="0" pos="0" show="0.000021000"/>
    <field name="frame.time_relative" showname="Time since reference or first frame: 0.000387000 seconds" size="0" pos="0" show="0.000387000"/>
    <field name="frame.number" showname="Frame Number: 8" size="0" pos="0" show="8"/>
    <field name="frame.len" showname="Frame Length: 56 bytes (448 bits)" size="0" pos="0" show="56"/>
    <field name="frame.cap_len" showname="Capture Length: 56 bytes (448 bits)" size="0" pos="0" show="56"/>
    <field name="frame.marked" showname="Frame is marked: False" size="0" pos="0" show="0"/>
    <field name="frame.ignored" showname="Frame is ignored: False" size="0" pos="0" show="0"/>
    <field name="frame.protocols" showname="Protocols in frame: null:ip:tcp" size="0" pos="0" show="null:ip:tcp"/>
  </proto>
  <proto name="null" showname="Null/Loopback" size="4" pos="0">
    <field name="null.family" showname="Family: IP (2)" size="4" pos="0" show="2" value="02000000"/>
  </proto>
  <proto name="ip" showname="Internet Protocol, Src: 127.0.0.1 (127.0.0.1), Dst: 127.0.0.1 (127.0.0.1)" size="20" pos="4">
    <field name="ip.version" showname="Version: 4" size="1" pos="4" show="4" value="45"/>
    <field name="ip.hdr_len" showname="Header length: 20 bytes" size="1" pos="4" show="20" value="45"/>
    <field name="ip.dsfield" showname="Differentiated Services Field: 0x00 (DSCP 0x00: Default; ECN: 0x00)" size="1" pos="5" show="0" value="00">
      <field name="ip.dsfield.dscp" showname="0000 00.. = Differentiated Services Codepoint: Default (0x00)" size="1" pos="5" show="0x00" value="0" unmaskedvalue="00"/>
      <field name="ip.dsfield.ect" showname=".... ..0. = ECN-Capable Transport (ECT): 0" size="1" pos="5" show="0" value="0" unmaskedvalue="00"/>
      <field name="ip.dsfield.ce" showname=".... ...0 = ECN-CE: 0" size="1" pos="5" show="0" value="0" unmaskedvalue="00"/>
    </field>
    <field name="ip.len" showname="Total Length: 52" size="2" pos="6" show="52" value="0034"/>
    <field name="ip.id" showname="Identification: 0x6384 (25476)" size="2" pos="8" show="0x6384" value="6384"/>
    <field name="ip.flags" showname="Flags: 0x02 (Don&apos;t Fragment)" size="1" pos="10" show="0x02" value="40">
      <field name="ip.flags.rb" showname="0... .... = Reserved bit: Not set" size="1" pos="10" show="0" value="40"/>
      <field name="ip.flags.df" showname=".1.. .... = Don&apos;t fragment: Set" size="1" pos="10" show="1" value="40"/>
      <field name="ip.flags.mf" showname="..0. .... = More fragments: Not set" size="1" pos="10" show="0" value="40"/>
    </field>
    <field name="ip.frag_offset" showname="Fragment offset: 0" size="2" pos="10" show="0" value="4000"/>
    <field name="ip.ttl" showname="Time to live: 64" size="1" pos="12" show="64" value="40"/>
    <field name="ip.proto" showname="Protocol: TCP (6)" size="1" pos="13" show="6" value="06"/>
    <field name="ip.checksum" showname="Header checksum: 0x0000 [incorrect, should be 0xd93d]" size="2" pos="14" show="0x0000" value="0000">
      <field name="ip.checksum_good" showname="Good: False" size="2" pos="14" show="0" value="0000"/>
      <field name="ip.checksum_bad" showname="Bad: True" size="2" pos="14" show="1" value="0000">
        <proto name="expert" showname="Expert Info (Error/Checksum): Bad checksum" size="0" pos="0">
          <field name="expert.message" showname="Message: Bad checksum" size="0" pos="0" show="Bad checksum"/>
          <field name="expert.severity" showname="Severity level: Error" size="0" pos="0" show="Error"/>
          <field name="expert.group" showname="Group: Checksum" size="0" pos="0" show="Checksum"/>
        </proto>
      </field>
    </field>
    <field name="ip.src" showname="Source: 127.0.0.1 (127.0.0.1)" size="4" pos="16" show="127.0.0.1" value="7f000001"/>
    <field name="ip.addr" showname="Source or Destination Address: 127.0.0.1 (127.0.0.1)" hide="yes" size="4" pos="16" show="127.0.0.1" value="7f000001"/>
    <field name="ip.src_host" showname="Source Host: 127.0.0.1" hide="yes" size="4" pos="16" show="127.0.0.1" value="7f000001"/>
    <field name="ip.host" showname="Source or Destination Host: 127.0.0.1" hide="yes" size="4" pos="16" show="127.0.0.1" value="7f000001"/>
    <field name="ip.dst" showname="Destination: 127.0.0.1 (127.0.0.1)" size="4" pos="20" show="127.0.0.1" value="7f000001"/>
    <field name="ip.addr" showname="Source or Destination Address: 127.0.0.1 (127.0.0.1)" hide="yes" size="4" pos="20" show="127.0.0.1" value="7f000001"/>
    <field name="ip.dst_host" showname="Destination Host: 127.0.0.1" hide="yes" size="4" pos="20" show="127.0.0.1" value="7f000001"/>
    <field name="ip.host" showname="Source or Destination Host: 127.0.0.1" hide="yes" size="4" pos="20" show="127.0.0.1" value="7f000001"/>
  </proto>
  <proto name="tcp" showname="Transmission Control Protocol, Src Port: 57321 (57321), Dst Port: afs3-fileserver (7000), Seq: 1, Ack: 13, Len: 0" size="32" pos="24">
    <field name="tcp.srcport" showname="Source port: 57321 (57321)" size="2" pos="24" show="57321" value="dfe9"/>
    <field name="tcp.dstport" showname="Destination port: afs3-fileserver (7000)" size="2" pos="26" show="7000" value="1b58"/>
    <field name="tcp.port" showname="Source or Destination Port: 57321" hide="yes" size="2" pos="24" show="57321" value="dfe9"/>
    <field name="tcp.port" showname="Source or Destination Port: 7000" hide="yes" size="2" pos="26" show="7000" value="1b58"/>
    <field name="tcp.stream" showname="Stream index: 1" size="0" pos="24" show="1"/>
    <field name="tcp.len" showname="TCP Segment Len: 0" hide="yes" size="1" pos="36" show="0" value="80"/>
    <field name="tcp.seq" showname="Sequence number: 1    (relative sequence number)" size="4" pos="28" show="1" value="1c85239f"/>
    <field name="tcp.ack" showname="Acknowledgement number: 13    (relative ack number)" size="4" pos="32" show="13" value="174cd738"/>
    <field name="tcp.hdr_len" showname="Header length: 32 bytes" size="1" pos="36" show="32" value="80"/>
    <field name="tcp.flags" showname="Flags: 0x10 (ACK)" size="2" pos="36" show="0x10" value="8010">
      <field name="tcp.flags.res" showname="000. .... .... = Reserved: Not set" size="1" pos="36" show="0" value="0" unmaskedvalue="80"/>
      <field name="tcp.flags.ns" showname="...0 .... .... = Nonce: Not set" size="1" pos="36" show="0" value="0" unmaskedvalue="80"/>
      <field name="tcp.flags.cwr" showname=".... 0... .... = Congestion Window Reduced (CWR): Not set" size="1" pos="37" show="0" value="0" unmaskedvalue="10"/>
      <field name="tcp.flags.ecn" showname=".... .0.. .... = ECN-Echo: Not set" size="1" pos="37" show="0" value="0" unmaskedvalue="10"/>
      <field name="tcp.flags.urg" showname=".... ..0. .... = Urgent: Not set" size="1" pos="37" show="0" value="0" unmaskedvalue="10"/>
      <field name="tcp.flags.ack" showname=".... ...1 .... = Acknowledgement: Set" size="1" pos="37" show="1" value="1" unmaskedvalue="10"/>
      <field name="tcp.flags.push" showname=".... .... 0... = Push: Not set" size="1" pos="37" show="0" value="0" unmaskedvalue="10"/>
      <field name="tcp.flags.reset" showname=".... .... .0.. = Reset: Not set" size="1" pos="37" show="0" value="0" unmaskedvalue="10"/>
      <field name="tcp.flags.syn" showname=".... .... ..0. = Syn: Not set" size="1" pos="37" show="0" value="0" unmaskedvalue="10"/>
      <field name="tcp.flags.fin" showname=".... .... ...0 = Fin: Not set" size="1" pos="37" show="0" value="0" unmaskedvalue="10"/>
    </field>
    <field name="tcp.window_size" showname="Window size: 146976 (scaled)" size="2" pos="38" show="146976" value="23e2"/>
    <field name="tcp.checksum" showname="Checksum: 0xfe28 [validation disabled]" size="2" pos="40" show="0xfe28" value="fe28">
      <field name="tcp.checksum_good" showname="Good Checksum: False" size="2" pos="40" show="0" value="fe28"/>
      <field name="tcp.checksum_bad" showname="Bad Checksum: False" size="2" pos="40" show="0" value="fe28"/>
    </field>
    <field name="tcp.options" showname="Options: (12 bytes)" size="12" pos="44" show="01:01:08:0a:11:4c:ea:90:11:4c:ea:90" value="0101080a114cea90114cea90">
      <field name="" show="NOP" size="1" pos="44" value="01"/>
      <field name="" show="NOP" size="1" pos="45" value="01"/>
      <field name="tcp.options.time_stamp" showname="TCP Time Stamp Option: True" hide="yes" size="10" pos="46" show="1" value="080a114cea90114cea90"/>
      <field name="" show="Timestamps: TSval 290253456, TSecr 290253456" size="10" pos="46" value="080a114cea90114cea90"/>
    </field>
    <field name="" show="SEQ/ACK analysis" size="0" pos="24" value="">
      <field name="tcp.analysis.acks_frame" showname="This is an ACK to the segment in frame: 7" size="0" pos="24" show="7"/>
      <field name="tcp.analysis.ack_rtt" showname="The RTT to ACK the segment was: 0.000021000 seconds" size="0" pos="24" show="0.000021000"/>
    </field>
  </proto>
</packet>


<packet>
  <proto name="geninfo" pos="0" showname="General information" size="56">
    <field name="num" pos="0" show="9" showname="Number" value="9" size="56"/>
    <field name="len" pos="0" show="56" showname="Frame Length" value="38" size="56"/>
    <field name="caplen" pos="0" show="56" showname="Captured Length" value="38" size="56"/>
    <field name="timestamp" pos="0" show="Jan  7, 2013 15:57:36.273993000 PST" showname="Captured Time" value="1357603056.273993000" size="56"/>
  </proto>
  <proto name="frame" showname="Frame 9: 56 bytes on wire (448 bits), 56 bytes captured (448 bits)" size="56" pos="0">
    <field name="frame.time" showname="Arrival Time: Jan  7, 2013 15:57:36.273993000 PST" size="0" pos="0" show="Jan  7, 2013 15:57:36.273993000"/>
    <field name="frame.time_epoch" showname="Epoch Time: 1357603056.273993000 seconds" size="0" pos="0" show="1357603056.273993000"/>
    <field name="frame.time_delta" showname="Time delta from previous captured frame: 0.000021000 seconds" size="0" pos="0" show="0.000021000"/>
    <field name="frame.time_delta_displayed" showname="Time delta from previous displayed frame: 0.000021000 seconds" size="0" pos="0" show="0.000021000"/>
    <field name="frame.time_relative" showname="Time since reference or first frame: 0.000408000 seconds" size="0" pos="0" show="0.000408000"/>
    <field name="frame.number" showname="Frame Number: 9" size="0" pos="0" show="9"/>
    <field name="frame.len" showname="Frame Length: 56 bytes (448 bits)" size="0" pos="0" show="56"/>
    <field name="frame.cap_len" showname="Capture Length: 56 bytes (448 bits)" size="0" pos="0" show="56"/>
    <field name="frame.marked" showname="Frame is marked: False" size="0" pos="0" show="0"/>
    <field name="frame.ignored" showname="Frame is ignored: False" size="0" pos="0" show="0"/>
    <field name="frame.protocols" showname="Protocols in frame: null:ip:tcp" size="0" pos="0" show="null:ip:tcp"/>
  </proto>
  <proto name="null" showname="Null/Loopback" size="4" pos="0">
    <field name="null.family" showname="Family: IP (2)" size="4" pos="0" show="2" value="02000000"/>
  </proto>
  <proto name="ip" showname="Internet Protocol, Src: 127.0.0.1 (127.0.0.1), Dst: 127.0.0.1 (127.0.0.1)" size="20" pos="4">
    <field name="ip.version" showname="Version: 4" size="1" pos="4" show="4" value="45"/>
    <field name="ip.hdr_len" showname="Header length: 20 bytes" size="1" pos="4" show="20" value="45"/>
    <field name="ip.dsfield" showname="Differentiated Services Field: 0x00 (DSCP 0x00: Default; ECN: 0x00)" size="1" pos="5" show="0" value="00">
      <field name="ip.dsfield.dscp" showname="0000 00.. = Differentiated Services Codepoint: Default (0x00)" size="1" pos="5" show="0x00" value="0" unmaskedvalue="00"/>
      <field name="ip.dsfield.ect" showname=".... ..0. = ECN-Capable Transport (ECT): 0" size="1" pos="5" show="0" value="0" unmaskedvalue="00"/>
      <field name="ip.dsfield.ce" showname=".... ...0 = ECN-CE: 0" size="1" pos="5" show="0" value="0" unmaskedvalue="00"/>
    </field>
    <field name="ip.len" showname="Total Length: 52" size="2" pos="6" show="52" value="0034"/>
    <field name="ip.id" showname="Identification: 0xc3f7 (50167)" size="2" pos="8" show="0xc3f7" value="c3f7"/>
    <field name="ip.flags" showname="Flags: 0x02 (Don&apos;t Fragment)" size="1" pos="10" show="0x02" value="40">
      <field name="ip.flags.rb" showname="0... .... = Reserved bit: Not set" size="1" pos="10" show="0" value="40"/>
      <field name="ip.flags.df" showname=".1.. .... = Don&apos;t fragment: Set" size="1" pos="10" show="1" value="40"/>
      <field name="ip.flags.mf" showname="..0. .... = More fragments: Not set" size="1" pos="10" show="0" value="40"/>
    </field>
    <field name="ip.frag_offset" showname="Fragment offset: 0" size="2" pos="10" show="0" value="4000"/>
    <field name="ip.ttl" showname="Time to live: 64" size="1" pos="12" show="64" value="40"/>
    <field name="ip.proto" showname="Protocol: TCP (6)" size="1" pos="13" show="6" value="06"/>
    <field name="ip.checksum" showname="Header checksum: 0x0000 [incorrect, should be 0x78ca]" size="2" pos="14" show="0x0000" value="0000">
      <field name="ip.checksum_good" showname="Good: False" size="2" pos="14" show="0" value="0000"/>
      <field name="ip.checksum_bad" showname="Bad: True" size="2" pos="14" show="1" value="0000">
        <proto name="expert" showname="Expert Info (Error/Checksum): Bad checksum" size="0" pos="0">
          <field name="expert.message" showname="Message: Bad checksum" size="0" pos="0" show="Bad checksum"/>
          <field name="expert.severity" showname="Severity level: Error" size="0" pos="0" show="Error"/>
          <field name="expert.group" showname="Group: Checksum" size="0" pos="0" show="Checksum"/>
        </proto>
      </field>
    </field>
    <field name="ip.src" showname="Source: 127.0.0.1 (127.0.0.1)" size="4" pos="16" show="127.0.0.1" value="7f000001"/>
    <field name="ip.addr" showname="Source or Destination Address: 127.0.0.1 (127.0.0.1)" hide="yes" size="4" pos="16" show="127.0.0.1" value="7f000001"/>
    <field name="ip.src_host" showname="Source Host: 127.0.0.1" hide="yes" size="4" pos="16" show="127.0.0.1" value="7f000001"/>
    <field name="ip.host" showname="Source or Destination Host: 127.0.0.1" hide="yes" size="4" pos="16" show="127.0.0.1" value="7f000001"/>
    <field name="ip.dst" showname="Destination: 127.0.0.1 (127.0.0.1)" size="4" pos="20" show="127.0.0.1" value="7f000001"/>
    <field name="ip.addr" showname="Source or Destination Address: 127.0.0.1 (127.0.0.1)" hide="yes" size="4" pos="20" show="127.0.0.1" value="7f000001"/>
    <field name="ip.dst_host" showname="Destination Host: 127.0.0.1" hide="yes" size="4" pos="20" show="127.0.0.1" value="7f000001"/>
    <field name="ip.host" showname="Source or Destination Host: 127.0.0.1" hide="yes" size="4" pos="20" show="127.0.0.1" value="7f000001"/>
  </proto>
  <proto name="tcp" showname="Transmission Control Protocol, Src Port: afs3-fileserver (7000), Dst Port: 57321 (57321), Seq: 13, Ack: 1, Len: 0" size="32" pos="24">
    <field name="tcp.srcport" showname="Source port: afs3-fileserver (7000)" size="2" pos="24" show="7000" value="1b58"/>
    <field name="tcp.dstport" showname="Destination port: 57321 (57321)" size="2" pos="26" show="57321" value="dfe9"/>
    <field name="tcp.port" showname="Source or Destination Port: 7000" hide="yes" size="2" pos="24" show="7000" value="1b58"/>
    <field name="tcp.port" showname="Source or Destination Port: 57321" hide="yes" size="2" pos="26" show="57321" value="dfe9"/>
    <field name="tcp.stream" showname="Stream index: 1" size="0" pos="24" show="1"/>
    <field name="tcp.len" showname="TCP Segment Len: 0" hide="yes" size="1" pos="36" show="0" value="80"/>
    <field name="tcp.seq" showname="Sequence number: 13    (relative sequence number)" size="4" pos="28" show="13" value="174cd738"/>
    <field name="tcp.ack" showname="Acknowledgement number: 1    (relative ack number)" size="4" pos="32" show="1" value="1c85239f"/>
    <field name="tcp.hdr_len" showname="Header length: 32 bytes" size="1" pos="36" show="32" value="80"/>
    <field name="tcp.flags" showname="Flags: 0x11 (FIN, ACK)" size="2" pos="36" show="0x11" value="8011">
      <field name="tcp.flags.res" showname="000. .... .... = Reserved: Not set" size="1" pos="36" show="0" value="0" unmaskedvalue="80"/>
      <field name="tcp.flags.ns" showname="...0 .... .... = Nonce: Not set" size="1" pos="36" show="0" value="0" unmaskedvalue="80"/>
      <field name="tcp.flags.cwr" showname=".... 0... .... = Congestion Window Reduced (CWR): Not set" size="1" pos="37" show="0" value="0" unmaskedvalue="11"/>
      <field name="tcp.flags.ecn" showname=".... .0.. .... = ECN-Echo: Not set" size="1" pos="37" show="0" value="0" unmaskedvalue="11"/>
      <field name="tcp.flags.urg" showname=".... ..0. .... = Urgent: Not set" size="1" pos="37" show="0" value="0" unmaskedvalue="11"/>
      <field name="tcp.flags.ack" showname=".... ...1 .... = Acknowledgement: Set" size="1" pos="37" show="1" value="1" unmaskedvalue="11"/>
      <field name="tcp.flags.push" showname=".... .... 0... = Push: Not set" size="1" pos="37" show="0" value="0" unmaskedvalue="11"/>
      <field name="tcp.flags.reset" showname=".... .... .0.. = Reset: Not set" size="1" pos="37" show="0" value="0" unmaskedvalue="11"/>
      <field name="tcp.flags.syn" showname=".... .... ..0. = Syn: Not set" size="1" pos="37" show="0" value="0" unmaskedvalue="11"/>
      <field name="tcp.flags.fin" showname=".... .... ...1 = Fin: Set" size="1" pos="37" show="1" value="1" unmaskedvalue="11">
        <proto name="expert" showname="Expert Info (Chat/Sequence): Connection finish (FIN)" size="0" pos="0">
          <field name="expert.message" showname="Message: Connection finish (FIN)" size="0" pos="0" show="Connection finish (FIN)"/>
          <field name="expert.severity" showname="Severity level: Chat" size="0" pos="0" show="Chat"/>
          <field name="expert.group" showname="Group: Sequence" size="0" pos="0" show="Sequence"/>
        </proto>
      </field>
    </field>
    <field name="tcp.window_size" showname="Window size: 146976 (scaled)" size="2" pos="38" show="146976" value="23e2"/>
    <field name="tcp.checksum" showname="Checksum: 0xfe28 [validation disabled]" size="2" pos="40" show="0xfe28" value="fe28">
      <field name="tcp.checksum_good" showname="Good Checksum: False" size="2" pos="40" show="0" value="fe28"/>
      <field name="tcp.checksum_bad" showname="Bad Checksum: False" size="2" pos="40" show="0" value="fe28"/>
    </field>
    <field name="tcp.options" showname="Options: (12 bytes)" size="12" pos="44" show="01:01:08:0a:11:4c:ea:90:11:4c:ea:90" value="0101080a114cea90114cea90">
      <field name="" show="NOP" size="1" pos="44" value="01"/>
      <field name="" show="NOP" size="1" pos="45" value="01"/>
      <field name="tcp.options.time_stamp" showname="TCP Time Stamp Option: True" hide="yes" size="10" pos="46" show="1" value="080a114cea90114cea90"/>
      <field name="" show="Timestamps: TSval 290253456, TSecr 290253456" size="10" pos="46" value="080a114cea90114cea90"/>
    </field>
  </proto>
</packet>


<packet>
  <proto name="geninfo" pos="0" showname="General information" size="56">
    <field name="num" pos="0" show="10" showname="Number" value="a" size="56"/>
    <field name="len" pos="0" show="56" showname="Frame Length" value="38" size="56"/>
    <field name="caplen" pos="0" show="56" showname="Captured Length" value="38" size="56"/>
    <field name="timestamp" pos="0" show="Jan  7, 2013 15:57:36.274010000 PST" showname="Captured Time" value="1357603056.274010000" size="56"/>
  </proto>
  <proto name="frame" showname="Frame 10: 56 bytes on wire (448 bits), 56 bytes captured (448 bits)" size="56" pos="0">
    <field name="frame.time" showname="Arrival Time: Jan  7, 2013 15:57:36.274010000 PST" size="0" pos="0" show="Jan  7, 2013 15:57:36.274010000"/>
    <field name="frame.time_epoch" showname="Epoch Time: 1357603056.274010000 seconds" size="0" pos="0" show="1357603056.274010000"/>
    <field name="frame.time_delta" showname="Time delta from previous captured frame: 0.000017000 seconds" size="0" pos="0" show="0.000017000"/>
    <field name="frame.time_delta_displayed" showname="Time delta from previous displayed frame: 0.000017000 seconds" size="0" pos="0" show="0.000017000"/>
    <field name="frame.time_relative" showname="Time since reference or first frame: 0.000425000 seconds" size="0" pos="0" show="0.000425000"/>
    <field name="frame.number" showname="Frame Number: 10" size="0" pos="0" show="10"/>
    <field name="frame.len" showname="Frame Length: 56 bytes (448 bits)" size="0" pos="0" show="56"/>
    <field name="frame.cap_len" showname="Capture Length: 56 bytes (448 bits)" size="0" pos="0" show="56"/>
    <field name="frame.marked" showname="Frame is marked: False" size="0" pos="0" show="0"/>
    <field name="frame.ignored" showname="Frame is ignored: False" size="0" pos="0" show="0"/>
    <field name="frame.protocols" showname="Protocols in frame: null:ip:tcp" size="0" pos="0" show="null:ip:tcp"/>
  </proto>
  <proto name="null" showname="Null/Loopback" size="4" pos="0">
    <field name="null.family" showname="Family: IP (2)" size="4" pos="0" show="2" value="02000000"/>
  </proto>
  <proto name="ip" showname="Internet Protocol, Src: 127.0.0.1 (127.0.0.1), Dst: 127.0.0.1 (127.0.0.1)" size="20" pos="4">
    <field name="ip.version" showname="Version: 4" size="1" pos="4" show="4" value="45"/>
    <field name="ip.hdr_len" showname="Header length: 20 bytes" size="1" pos="4" show="20" value="45"/>
    <field name="ip.dsfield" showname="Differentiated Services Field: 0x00 (DSCP 0x00: Default; ECN: 0x00)" size="1" pos="5" show="0" value="00">
      <field name="ip.dsfield.dscp" showname="0000 00.. = Differentiated Services Codepoint: Default (0x00)" size="1" pos="5" show="0x00" value="0" unmaskedvalue="00"/>
      <field name="ip.dsfield.ect" showname=".... ..0. = ECN-Capable Transport (ECT): 0" size="1" pos="5" show="0" value="0" unmaskedvalue="00"/>
      <field name="ip.dsfield.ce" showname=".... ...0 = ECN-CE: 0" size="1" pos="5" show="0" value="0" unmaskedvalue="00"/>
    </field>
    <field name="ip.len" showname="Total Length: 52" size="2" pos="6" show="52" value="0034"/>
    <field name="ip.id" showname="Identification: 0xc3c4 (50116)" size="2" pos="8" show="0xc3c4" value="c3c4"/>
    <field name="ip.flags" showname="Flags: 0x02 (Don&apos;t Fragment)" size="1" pos="10" show="0x02" value="40">
      <field name="ip.flags.rb" showname="0... .... = Reserved bit: Not set" size="1" pos="10" show="0" value="40"/>
      <field name="ip.flags.df" showname=".1.. .... = Don&apos;t fragment: Set" size="1" pos="10" show="1" value="40"/>
      <field name="ip.flags.mf" showname="..0. .... = More fragments: Not set" size="1" pos="10" show="0" value="40"/>
    </field>
    <field name="ip.frag_offset" showname="Fragment offset: 0" size="2" pos="10" show="0" value="4000"/>
    <field name="ip.ttl" showname="Time to live: 64" size="1" pos="12" show="64" value="40"/>
    <field name="ip.proto" showname="Protocol: TCP (6)" size="1" pos="13" show="6" value="06"/>
    <field name="ip.checksum" showname="Header checksum: 0x0000 [incorrect, should be 0x78fd]" size="2" pos="14" show="0x0000" value="0000">
      <field name="ip.checksum_good" showname="Good: False" size="2" pos="14" show="0" value="0000"/>
      <field name="ip.checksum_bad" showname="Bad: True" size="2" pos="14" show="1" value="0000">
        <proto name="expert" showname="Expert Info (Error/Checksum): Bad checksum" size="0" pos="0">
          <field name="expert.message" showname="Message: Bad checksum" size="0" pos="0" show="Bad checksum"/>
          <field name="expert.severity" showname="Severity level: Error" size="0" pos="0" show="Error"/>
          <field name="expert.group" showname="Group: Checksum" size="0" pos="0" show="Checksum"/>
        </proto>
      </field>
    </field>
    <field name="ip.src" showname="Source: 127.0.0.1 (127.0.0.1)" size="4" pos="16" show="127.0.0.1" value="7f000001"/>
    <field name="ip.addr" showname="Source or Destination Address: 127.0.0.1 (127.0.0.1)" hide="yes" size="4" pos="16" show="127.0.0.1" value="7f000001"/>
    <field name="ip.src_host" showname="Source Host: 127.0.0.1" hide="yes" size="4" pos="16" show="127.0.0.1" value="7f000001"/>
    <field name="ip.host" showname="Source or Destination Host: 127.0.0.1" hide="yes" size="4" pos="16" show="127.0.0.1" value="7f000001"/>
    <field name="ip.dst" showname="Destination: 127.0.0.1 (127.0.0.1)" size="4" pos="20" show="127.0.0.1" value="7f000001"/>
    <field name="ip.addr" showname="Source or Destination Address: 127.0.0.1 (127.0.0.1)" hide="yes" size="4" pos="20" show="127.0.0.1" value="7f000001"/>
    <field name="ip.dst_host" showname="Destination Host: 127.0.0.1" hide="yes" size="4" pos="20" show="127.0.0.1" value="7f000001"/>
    <field name="ip.host" showname="Source or Destination Host: 127.0.0.1" hide="yes" size="4" pos="20" show="127.0.0.1" value="7f000001"/>
  </proto>
  <proto name="tcp" showname="Transmission Control Protocol, Src Port: 57321 (57321), Dst Port: afs3-fileserver (7000), Seq: 1, Ack: 14, Len: 0" size="32" pos="24">
    <field name="tcp.srcport" showname="Source port: 57321 (57321)" size="2" pos="24" show="57321" value="dfe9"/>
    <field name="tcp.dstport" showname="Destination port: afs3-fileserver (7000)" size="2" pos="26" show="7000" value="1b58"/>
    <field name="tcp.port" showname="Source or Destination Port: 57321" hide="yes" size="2" pos="24" show="57321" value="dfe9"/>
    <field name="tcp.port" showname="Source or Destination Port: 7000" hide="yes" size="2" pos="26" show="7000" value="1b58"/>
    <field name="tcp.stream" showname="Stream index: 1" size="0" pos="24" show="1"/>
    <field name="tcp.len" showname="TCP Segment Len: 0" hide="yes" size="1" pos="36" show="0" value="80"/>
    <field name="tcp.seq" showname="Sequence number: 1    (relative sequence number)" size="4" pos="28" show="1" value="1c85239f"/>
    <field name="tcp.ack" showname="Acknowledgement number: 14    (relative ack number)" size="4" pos="32" show="14" value="174cd739"/>
    <field name="tcp.hdr_len" showname="Header length: 32 bytes" size="1" pos="36" show="32" value="80"/>
    <field name="tcp.flags" showname="Flags: 0x10 (ACK)" size="2" pos="36" show="0x10" value="8010">
      <field name="tcp.flags.res" showname="000. .... .... = Reserved: Not set" size="1" pos="36" show="0" value="0" unmaskedvalue="80"/>
      <field name="tcp.flags.ns" showname="...0 .... .... = Nonce: Not set" size="1" pos="36" show="0" value="0" unmaskedvalue="80"/>
      <field name="tcp.flags.cwr" showname=".... 0... .... = Congestion Window Reduced (CWR): Not set" size="1" pos="37" show="0" value="0" unmaskedvalue="10"/>
      <field name="tcp.flags.ecn" showname=".... .0.. .... = ECN-Echo: Not set" size="1" pos="37" show="0" value="0" unmaskedvalue="10"/>
      <field name="tcp.flags.urg" showname=".... ..0. .... = Urgent: Not set" size="1" pos="37" show="0" value="0" unmaskedvalue="10"/>
      <field name="tcp.flags.ack" showname=".... ...1 .... = Acknowledgement: Set" size="1" pos="37" show="1" value="1" unmaskedvalue="10"/>
      <field name="tcp.flags.push" showname=".... .... 0... = Push: Not set" size="1" pos="37" show="0" value="0" unmaskedvalue="10"/>
      <field name="tcp.flags.reset" showname=".... .... .0.. = Reset: Not set" size="1" pos="37" show="0" value="0" unmaskedvalue="10"/>
      <field name="tcp.flags.syn" showname=".... .... ..0. = Syn: Not set" size="1" pos="37" show="0" value="0" unmaskedvalue="10"/>
      <field name="tcp.flags.fin" showname=".... .... ...0 = Fin: Not set" size="1" pos="37" show="0" value="0" unmaskedvalue="10"/>
    </field>
    <field name="tcp.window_size" showname="Window size: 146976 (scaled)" size="2" pos="38" show="146976" value="23e2"/>
    <field name="tcp.checksum" showname="Checksum: 0xfe28 [validation disabled]" size="2" pos="40" show="0xfe28" value="fe28">
      <field name="tcp.checksum_good" showname="Good Checksum: False" size="2" pos="40" show="0" value="fe28"/>
      <field name="tcp.checksum_bad" showname="Bad Checksum: False" size="2" pos="40" show="0" value="fe28"/>
    </field>
    <field name="tcp.options" showname="Options: (12 bytes)" size="12" pos="44" show="01:01:08:0a:11:4c:ea:90:11:4c:ea:90" value="0101080a114cea90114cea90">
      <field name="" show="NOP" size="1" pos="44" value="01"/>
      <field name="" show="NOP" size="1" pos="45" value="01"/>
      <field name="tcp.options.time_stamp" showname="TCP Time Stamp Option: True" hide="yes" size="10" pos="46" show="1" value="080a114cea90114cea90"/>
      <field name="" show="Timestamps: TSval 290253456, TSecr 290253456" size="10" pos="46" value="080a114cea90114cea90"/>
    </field>
    <field name="" show="SEQ/ACK analysis" size="0" pos="24" value="">
      <field name="tcp.analysis.acks_frame" showname="This is an ACK to the segment in frame: 9" size="0" pos="24" show="9"/>
      <field name="tcp.analysis.ack_rtt" showname="The RTT to ACK the segment was: 0.000017000 seconds" size="0" pos="24" show="0.000017000"/>
    </field>
  </proto>
</packet>


<packet>
  <proto name="geninfo" pos="0" showname="General information" size="56">
    <field name="num" pos="0" show="11" showname="Number" value="b" size="56"/>
    <field name="len" pos="0" show="56" showname="Frame Length" value="38" size="56"/>
    <field name="caplen" pos="0" show="56" showname="Captured Length" value="38" size="56"/>
    <field name="timestamp" pos="0" show="Jan  7, 2013 15:57:36.274016000 PST" showname="Captured Time" value="1357603056.274016000" size="56"/>
  </proto>
  <proto name="frame" showname="Frame 11: 56 bytes on wire (448 bits), 56 bytes captured (448 bits)" size="56" pos="0">
    <field name="frame.time" showname="Arrival Time: Jan  7, 2013 15:57:36.274016000 PST" size="0" pos="0" show="Jan  7, 2013 15:57:36.274016000"/>
    <field name="frame.time_epoch" showname="Epoch Time: 1357603056.274016000 seconds" size="0" pos="0" show="1357603056.274016000"/>
    <field name="frame.time_delta" showname="Time delta from previous captured frame: 0.000006000 seconds" size="0" pos="0" show="0.000006000"/>
    <field name="frame.time_delta_displayed" showname="Time delta from previous displayed frame: 0.000006000 seconds" size="0" pos="0" show="0.000006000"/>
    <field name="frame.time_relative" showname="Time since reference or first frame: 0.000431000 seconds" size="0" pos="0" show="0.000431000"/>
    <field name="frame.number" showname="Frame Number: 11" size="0" pos="0" show="11"/>
    <field name="frame.len" showname="Frame Length: 56 bytes (448 bits)" size="0" pos="0" show="56"/>
    <field name="frame.cap_len" showname="Capture Length: 56 bytes (448 bits)" size="0" pos="0" show="56"/>
    <field name="frame.marked" showname="Frame is marked: False" size="0" pos="0" show="0"/>
    <field name="frame.ignored" showname="Frame is ignored: False" size="0" pos="0" show="0"/>
    <field name="frame.protocols" showname="Protocols in frame: null:ip:tcp" size="0" pos="0" show="null:ip:tcp"/>
  </proto>
  <proto name="null" showname="Null/Loopback" size="4" pos="0">
    <field name="null.family" showname="Family: IP (2)" size="4" pos="0" show="2" value="02000000"/>
  </proto>
  <proto name="ip" showname="Internet Protocol, Src: 127.0.0.1 (127.0.0.1), Dst: 127.0.0.1 (127.0.0.1)" size="20" pos="4">
    <field name="ip.version" showname="Version: 4" size="1" pos="4" show="4" value="45"/>
    <field name="ip.hdr_len" showname="Header length: 20 bytes" size="1" pos="4" show="20" value="45"/>
    <field name="ip.dsfield" showname="Differentiated Services Field: 0x00 (DSCP 0x00: Default; ECN: 0x00)" size="1" pos="5" show="0" value="00">
      <field name="ip.dsfield.dscp" showname="0000 00.. = Differentiated Services Codepoint: Default (0x00)" size="1" pos="5" show="0x00" value="0" unmaskedvalue="00"/>
      <field name="ip.dsfield.ect" showname=".... ..0. = ECN-Capable Transport (ECT): 0" size="1" pos="5" show="0" value="0" unmaskedvalue="00"/>
      <field name="ip.dsfield.ce" showname=".... ...0 = ECN-CE: 0" size="1" pos="5" show="0" value="0" unmaskedvalue="00"/>
    </field>
    <field name="ip.len" showname="Total Length: 52" size="2" pos="6" show="52" value="0034"/>
    <field name="ip.id" showname="Identification: 0x5480 (21632)" size="2" pos="8" show="0x5480" value="5480"/>
    <field name="ip.flags" showname="Flags: 0x02 (Don&apos;t Fragment)" size="1" pos="10" show="0x02" value="40">
      <field name="ip.flags.rb" showname="0... .... = Reserved bit: Not set" size="1" pos="10" show="0" value="40"/>
      <field name="ip.flags.df" showname=".1.. .... = Don&apos;t fragment: Set" size="1" pos="10" show="1" value="40"/>
      <field name="ip.flags.mf" showname="..0. .... = More fragments: Not set" size="1" pos="10" show="0" value="40"/>
    </field>
    <field name="ip.frag_offset" showname="Fragment offset: 0" size="2" pos="10" show="0" value="4000"/>
    <field name="ip.ttl" showname="Time to live: 64" size="1" pos="12" show="64" value="40"/>
    <field name="ip.proto" showname="Protocol: TCP (6)" size="1" pos="13" show="6" value="06"/>
    <field name="ip.checksum" showname="Header checksum: 0x0000 [incorrect, should be 0xe841]" size="2" pos="14" show="0x0000" value="0000">
      <field name="ip.checksum_good" showname="Good: False" size="2" pos="14" show="0" value="0000"/>
      <field name="ip.checksum_bad" showname="Bad: True" size="2" pos="14" show="1" value="0000">
        <proto name="expert" showname="Expert Info (Error/Checksum): Bad checksum" size="0" pos="0">
          <field name="expert.message" showname="Message: Bad checksum" size="0" pos="0" show="Bad checksum"/>
          <field name="expert.severity" showname="Severity level: Error" size="0" pos="0" show="Error"/>
          <field name="expert.group" showname="Group: Checksum" size="0" pos="0" show="Checksum"/>
        </proto>
      </field>
    </field>
    <field name="ip.src" showname="Source: 127.0.0.1 (127.0.0.1)" size="4" pos="16" show="127.0.0.1" value="7f000001"/>
    <field name="ip.addr" showname="Source or Destination Address: 127.0.0.1 (127.0.0.1)" hide="yes" size="4" pos="16" show="127.0.0.1" value="7f000001"/>
    <field name="ip.src_host" showname="Source Host: 127.0.0.1" hide="yes" size="4" pos="16" show="127.0.0.1" value="7f000001"/>
    <field name="ip.host" showname="Source or Destination Host: 127.0.0.1" hide="yes" size="4" pos="16" show="127.0.0.1" value="7f000001"/>
    <field name="ip.dst" showname="Destination: 127.0.0.1 (127.0.0.1)" size="4" pos="20" show="127.0.0.1" value="7f000001"/>
    <field name="ip.addr" showname="Source or Destination Address: 127.0.0.1 (127.0.0.1)" hide="yes" size="4" pos="20" show="127.0.0.1" value="7f000001"/>
    <field name="ip.dst_host" showname="Destination Host: 127.0.0.1" hide="yes" size="4" pos="20" show="127.0.0.1" value="7f000001"/>
    <field name="ip.host" showname="Source or Destination Host: 127.0.0.1" hide="yes" size="4" pos="20" show="127.0.0.1" value="7f000001"/>
  </proto>
  <proto name="tcp" showname="Transmission Control Protocol, Src Port: afs3-fileserver (7000), Dst Port: 57321 (57321), Seq: 14, Ack: 1, Len: 0" size="32" pos="24">
    <field name="tcp.srcport" showname="Source port: afs3-fileserver (7000)" size="2" pos="24" show="7000" value="1b58"/>
    <field name="tcp.dstport" showname="Destination port: 57321 (57321)" size="2" pos="26" show="57321" value="dfe9"/>
    <field name="tcp.port" showname="Source or Destination Port: 7000" hide="yes" size="2" pos="24" show="7000" value="1b58"/>
    <field name="tcp.port" showname="Source or Destination Port: 57321" hide="yes" size="2" pos="26" show="57321" value="dfe9"/>
    <field name="tcp.stream" showname="Stream index: 1" size="0" pos="24" show="1"/>
    <field name="tcp.len" showname="TCP Segment Len: 0" hide="yes" size="1" pos="36" show="0" value="80"/>
    <field name="tcp.seq" showname="Sequence number: 14    (relative sequence number)" size="4" pos="28" show="14" value="174cd739"/>
    <field name="tcp.ack" showname="Acknowledgement number: 1    (relative ack number)" size="4" pos="32" show="1" value="1c85239f"/>
    <field name="tcp.hdr_len" showname="Header length: 32 bytes" size="1" pos="36" show="32" value="80"/>
    <field name="tcp.flags" showname="Flags: 0x10 (ACK)" size="2" pos="36" show="0x10" value="8010">
      <field name="tcp.flags.res" showname="000. .... .... = Reserved: Not set" size="1" pos="36" show="0" value="0" unmaskedvalue="80"/>
      <field name="tcp.flags.ns" showname="...0 .... .... = Nonce: Not set" size="1" pos="36" show="0" value="0" unmaskedvalue="80"/>
      <field name="tcp.flags.cwr" showname=".... 0... .... = Congestion Window Reduced (CWR): Not set" size="1" pos="37" show="0" value="0" unmaskedvalue="10"/>
      <field name="tcp.flags.ecn" showname=".... .0.. .... = ECN-Echo: Not set" size="1" pos="37" show="0" value="0" unmaskedvalue="10"/>
      <field name="tcp.flags.urg" showname=".... ..0. .... = Urgent: Not set" size="1" pos="37" show="0" value="0" unmaskedvalue="10"/>
      <field name="tcp.flags.ack" showname=".... ...1 .... = Acknowledgement: Set" size="1" pos="37" show="1" value="1" unmaskedvalue="10"/>
      <field name="tcp.flags.push" showname=".... .... 0... = Push: Not set" size="1" pos="37" show="0" value="0" unmaskedvalue="10"/>
      <field name="tcp.flags.reset" showname=".... .... .0.. = Reset: Not set" size="1" pos="37" show="0" value="0" unmaskedvalue="10"/>
      <field name="tcp.flags.syn" showname=".... .... ..0. = Syn: Not set" size="1" pos="37" show="0" value="0" unmaskedvalue="10"/>
      <field name="tcp.flags.fin" showname=".... .... ...0 = Fin: Not set" size="1" pos="37" show="0" value="0" unmaskedvalue="10"/>
    </field>
    <field name="tcp.window_size" showname="Window size: 146976 (scaled)" size="2" pos="38" show="146976" value="23e2"/>
    <field name="tcp.checksum" showname="Checksum: 0xfe28 [validation disabled]" size="2" pos="40" show="0xfe28" value="fe28">
      <field name="tcp.checksum_good" showname="Good Checksum: False" size="2" pos="40" show="0" value="fe28"/>
      <field name="tcp.checksum_bad" showname="Bad Checksum: False" size="2" pos="40" show="0" value="fe28"/>
    </field>
    <field name="tcp.options" showname="Options: (12 bytes)" size="12" pos="44" show="01:01:08:0a:11:4c:ea:90:11:4c:ea:90" value="0101080a114cea90114cea90">
      <field name="" show="NOP" size="1" pos="44" value="01"/>
      <field name="" show="NOP" size="1" pos="45" value="01"/>
      <field name="tcp.options.time_stamp" showname="TCP Time Stamp Option: True" hide="yes" size="10" pos="46" show="1" value="080a114cea90114cea90"/>
      <field name="" show="Timestamps: TSval 290253456, TSecr 290253456" size="10" pos="46" value="080a114cea90114cea90"/>
    </field>
    <field name="" show="SEQ/ACK analysis" size="0" pos="24" value="">
      <field name="tcp.analysis.flags" showname="TCP Analysis Flags" size="0" pos="24" show="" value="">
        <field name="tcp.analysis.duplicate_ack" showname="This is a TCP duplicate ack" size="0" pos="24" show="" value=""/>
      </field>
      <field name="tcp.analysis.duplicate_ack_num" showname="Duplicate ACK #: 1" size="0" pos="24" show="1"/>
      <field name="tcp.analysis.duplicate_ack_frame" showname="Duplicate to the ACK in frame: 9" size="0" pos="24" show="9">
        <proto name="expert" showname="Expert Info (Note/Sequence): Duplicate ACK (#1)" size="0" pos="0">
          <field name="expert.message" showname="Message: Duplicate ACK (#1)" size="0" pos="0" show="Duplicate ACK (#1)"/>
          <field name="expert.severity" showname="Severity level: Note" size="0" pos="0" show="Note"/>
          <field name="expert.group" showname="Group: Sequence" size="0" pos="0" show="Sequence"/>
        </proto>
      </field>
    </field>
  </proto>
</packet>


<packet>
  <proto name="geninfo" pos="0" showname="General information" size="56">
    <field name="num" pos="0" show="12" showname="Number" value="c" size="56"/>
    <field name="len" pos="0" show="56" showname="Frame Length" value="38" size="56"/>
    <field name="caplen" pos="0" show="56" showname="Captured Length" value="38" size="56"/>
    <field name="timestamp" pos="0" show="Jan  7, 2013 15:57:36.274041000 PST" showname="Captured Time" value="1357603056.274041000" size="56"/>
  </proto>
  <proto name="frame" showname="Frame 12: 56 bytes on wire (448 bits), 56 bytes captured (448 bits)" size="56" pos="0">
    <field name="frame.time" showname="Arrival Time: Jan  7, 2013 15:57:36.274041000 PST" size="0" pos="0" show="Jan  7, 2013 15:57:36.274041000"/>
    <field name="frame.time_epoch" showname="Epoch Time: 1357603056.274041000 seconds" size="0" pos="0" show="1357603056.274041000"/>
    <field name="frame.time_delta" showname="Time delta from previous captured frame: 0.000025000 seconds" size="0" pos="0" show="0.000025000"/>
    <field name="frame.time_delta_displayed" showname="Time delta from previous displayed frame: 0.000025000 seconds" size="0" pos="0" show="0.000025000"/>
    <field name="frame.time_relative" showname="Time since reference or first frame: 0.000456000 seconds" size="0" pos="0" show="0.000456000"/>
    <field name="frame.number" showname="Frame Number: 12" size="0" pos="0" show="12"/>
    <field name="frame.len" showname="Frame Length: 56 bytes (448 bits)" size="0" pos="0" show="56"/>
    <field name="frame.cap_len" showname="Capture Length: 56 bytes (448 bits)" size="0" pos="0" show="56"/>
    <field name="frame.marked" showname="Frame is marked: False" size="0" pos="0" show="0"/>
    <field name="frame.ignored" showname="Frame is ignored: False" size="0" pos="0" show="0"/>
    <field name="frame.protocols" showname="Protocols in frame: null:ip:tcp" size="0" pos="0" show="null:ip:tcp"/>
  </proto>
  <proto name="null" showname="Null/Loopback" size="4" pos="0">
    <field name="null.family" showname="Family: IP (2)" size="4" pos="0" show="2" value="02000000"/>
  </proto>
  <proto name="ip" showname="Internet Protocol, Src: 127.0.0.1 (127.0.0.1), Dst: 127.0.0.1 (127.0.0.1)" size="20" pos="4">
    <field name="ip.version" showname="Version: 4" size="1" pos="4" show="4" value="45"/>
    <field name="ip.hdr_len" showname="Header length: 20 bytes" size="1" pos="4" show="20" value="45"/>
    <field name="ip.dsfield" showname="Differentiated Services Field: 0x00 (DSCP 0x00: Default; ECN: 0x00)" size="1" pos="5" show="0" value="00">
      <field name="ip.dsfield.dscp" showname="0000 00.. = Differentiated Services Codepoint: Default (0x00)" size="1" pos="5" show="0x00" value="0" unmaskedvalue="00"/>
      <field name="ip.dsfield.ect" showname=".... ..0. = ECN-Capable Transport (ECT): 0" size="1" pos="5" show="0" value="0" unmaskedvalue="00"/>
      <field name="ip.dsfield.ce" showname=".... ...0 = ECN-CE: 0" size="1" pos="5" show="0" value="0" unmaskedvalue="00"/>
    </field>
    <field name="ip.len" showname="Total Length: 52" size="2" pos="6" show="52" value="0034"/>
    <field name="ip.id" showname="Identification: 0xb0c2 (45250)" size="2" pos="8" show="0xb0c2" value="b0c2"/>
    <field name="ip.flags" showname="Flags: 0x02 (Don&apos;t Fragment)" size="1" pos="10" show="0x02" value="40">
      <field name="ip.flags.rb" showname="0... .... = Reserved bit: Not set" size="1" pos="10" show="0" value="40"/>
      <field name="ip.flags.df" showname=".1.. .... = Don&apos;t fragment: Set" size="1" pos="10" show="1" value="40"/>
      <field name="ip.flags.mf" showname="..0. .... = More fragments: Not set" size="1" pos="10" show="0" value="40"/>
    </field>
    <field name="ip.frag_offset" showname="Fragment offset: 0" size="2" pos="10" show="0" value="4000"/>
    <field name="ip.ttl" showname="Time to live: 64" size="1" pos="12" show="64" value="40"/>
    <field name="ip.proto" showname="Protocol: TCP (6)" size="1" pos="13" show="6" value="06"/>
    <field name="ip.checksum" showname="Header checksum: 0x0000 [incorrect, should be 0x8bff]" size="2" pos="14" show="0x0000" value="0000">
      <field name="ip.checksum_good" showname="Good: False" size="2" pos="14" show="0" value="0000"/>
      <field name="ip.checksum_bad" showname="Bad: True" size="2" pos="14" show="1" value="0000">
        <proto name="expert" showname="Expert Info (Error/Checksum): Bad checksum" size="0" pos="0">
          <field name="expert.message" showname="Message: Bad checksum" size="0" pos="0" show="Bad checksum"/>
          <field name="expert.severity" showname="Severity level: Error" size="0" pos="0" show="Error"/>
          <field name="expert.group" showname="Group: Checksum" size="0" pos="0" show="Checksum"/>
        </proto>
      </field>
    </field>
    <field name="ip.src" showname="Source: 127.0.0.1 (127.0.0.1)" size="4" pos="16" show="127.0.0.1" value="7f000001"/>
    <field name="ip.addr" showname="Source or Destination Address: 127.0.0.1 (127.0.0.1)" hide="yes" size="4" pos="16" show="127.0.0.1" value="7f000001"/>
    <field name="ip.src_host" showname="Source Host: 127.0.0.1" hide="yes" size="4" pos="16" show="127.0.0.1" value="7f000001"/>
    <field name="ip.host" showname="Source or Destination Host: 127.0.0.1" hide="yes" size="4" pos="16" show="127.0.0.1" value="7f000001"/>
    <field name="ip.dst" showname="Destination: 127.0.0.1 (127.0.0.1)" size="4" pos="20" show="127.0.0.1" value="7f000001"/>
    <field name="ip.addr" showname="Source or Destination Address: 127.0.0.1 (127.0.0.1)" hide="yes" size="4" pos="20" show="127.0.0.1" value="7f000001"/>
    <field name="ip.dst_host" showname="Destination Host: 127.0.0.1" hide="yes" size="4" pos="20" show="127.0.0.1" value="7f000001"/>
    <field name="ip.host" showname="Source or Destination Host: 127.0.0.1" hide="yes" size="4" pos="20" show="127.0.0.1" value="7f000001"/>
  </proto>
  <proto name="tcp" showname="Transmission Control Protocol, Src Port: 57321 (57321), Dst Port: afs3-fileserver (7000), Seq: 1, Ack: 14, Len: 0" size="32" pos="24">
    <field name="tcp.srcport" showname="Source port: 57321 (57321)" size="2" pos="24" show="57321" value="dfe9"/>
    <field name="tcp.dstport" showname="Destination port: afs3-fileserver (7000)" size="2" pos="26" show="7000" value="1b58"/>
    <field name="tcp.port" showname="Source or Destination Port: 57321" hide="yes" size="2" pos="24" show="57321" value="dfe9"/>
    <field name="tcp.port" showname="Source or Destination Port: 7000" hide="yes" size="2" pos="26" show="7000" value="1b58"/>
    <field name="tcp.stream" showname="Stream index: 1" size="0" pos="24" show="1"/>
    <field name="tcp.len" showname="TCP Segment Len: 0" hide="yes" size="1" pos="36" show="0" value="80"/>
    <field name="tcp.seq" showname="Sequence number: 1    (relative sequence number)" size="4" pos="28" show="1" value="1c85239f"/>
    <field name="tcp.ack" showname="Acknowledgement number: 14    (relative ack number)" size="4" pos="32" show="14" value="174cd739"/>
    <field name="tcp.hdr_len" showname="Header length: 32 bytes" size="1" pos="36" show="32" value="80"/>
    <field name="tcp.flags" showname="Flags: 0x11 (FIN, ACK)" size="2" pos="36" show="0x11" value="8011">
      <field name="tcp.flags.res" showname="000. .... .... = Reserved: Not set" size="1" pos="36" show="0" value="0" unmaskedvalue="80"/>
      <field name="tcp.flags.ns" showname="...0 .... .... = Nonce: Not set" size="1" pos="36" show="0" value="0" unmaskedvalue="80"/>
      <field name="tcp.flags.cwr" showname=".... 0... .... = Congestion Window Reduced (CWR): Not set" size="1" pos="37" show="0" value="0" unmaskedvalue="11"/>
      <field name="tcp.flags.ecn" showname=".... .0.. .... = ECN-Echo: Not set" size="1" pos="37" show="0" value="0" unmaskedvalue="11"/>
      <field name="tcp.flags.urg" showname=".... ..0. .... = Urgent: Not set" size="1" pos="37" show="0" value="0" unmaskedvalue="11"/>
      <field name="tcp.flags.ack" showname=".... ...1 .... = Acknowledgement: Set" size="1" pos="37" show="1" value="1" unmaskedvalue="11"/>
      <field name="tcp.flags.push" showname=".... .... 0... = Push: Not set" size="1" pos="37" show="0" value="0" unmaskedvalue="11"/>
      <field name="tcp.flags.reset" showname=".... .... .0.. = Reset: Not set" size="1" pos="37" show="0" value="0" unmaskedvalue="11"/>
      <field name="tcp.flags.syn" showname=".... .... ..0. = Syn: Not set" size="1" pos="37" show="0" value="0" unmaskedvalue="11"/>
      <field name="tcp.flags.fin" showname=".... .... ...1 = Fin: Set" size="1" pos="37" show="1" value="1" unmaskedvalue="11">
        <proto name="expert" showname="Expert Info (Chat/Sequence): Connection finish (FIN)" size="0" pos="0">
          <field name="expert.message" showname="Message: Connection finish (FIN)" size="0" pos="0" show="Connection finish (FIN)"/>
          <field name="expert.severity" showname="Severity level: Chat" size="0" pos="0" show="Chat"/>
          <field name="expert.group" showname="Group: Sequence" size="0" pos="0" show="Sequence"/>
        </proto>
      </field>
    </field>
    <field name="tcp.window_size" showname="Window size: 146976 (scaled)" size="2" pos="38" show="146976" value="23e2"/>
    <field name="tcp.checksum" showname="Checksum: 0xfe28 [validation disabled]" size="2" pos="40" show="0xfe28" value="fe28">
      <field name="tcp.checksum_good" showname="Good Checksum: False" size="2" pos="40" show="0" value="fe28"/>
      <field name="tcp.checksum_bad" showname="Bad Checksum: False" size="2" pos="40" show="0" value="fe28"/>
    </field>
    <field name="tcp.options" showname="Options: (12 bytes)" size="12" pos="44" show="01:01:08:0a:11:4c:ea:90:11:4c:ea:90" value="0101080a114cea90114cea90">
      <field name="" show="NOP" size="1" pos="44" value="01"/>
      <field name="" show="NOP" size="1" pos="45" value="01"/>
      <field name="tcp.options.time_stamp" showname="TCP Time Stamp Option: True" hide="yes" size="10" pos="46" show="1" value="080a114cea90114cea90"/>
      <field name="" show="Timestamps: TSval 290253456, TSecr 290253456" size="10" pos="46" value="080a114cea90114cea90"/>
    </field>
  </proto>
</packet>


<packet>
  <proto name="geninfo" pos="0" showname="General information" size="56">
    <field name="num" pos="0" show="13" showname="Number" value="d" size="56"/>
    <field name="len" pos="0" show="56" showname="Frame Length" value="38" size="56"/>
    <field name="caplen" pos="0" show="56" showname="Captured Length" value="38" size="56"/>
    <field name="timestamp" pos="0" show="Jan  7, 2013 15:57:36.274059000 PST" showname="Captured Time" value="1357603056.274059000" size="56"/>
  </proto>
  <proto name="frame" showname="Frame 13: 56 bytes on wire (448 bits), 56 bytes captured (448 bits)" size="56" pos="0">
    <field name="frame.time" showname="Arrival Time: Jan  7, 2013 15:57:36.274059000 PST" size="0" pos="0" show="Jan  7, 2013 15:57:36.274059000"/>
    <field name="frame.time_epoch" showname="Epoch Time: 1357603056.274059000 seconds" size="0" pos="0" show="1357603056.274059000"/>
    <field name="frame.time_delta" showname="Time delta from previous captured frame: 0.000018000 seconds" size="0" pos="0" show="0.000018000"/>
    <field name="frame.time_delta_displayed" showname="Time delta from previous displayed frame: 0.000018000 seconds" size="0" pos="0" show="0.000018000"/>
    <field name="frame.time_relative" showname="Time since reference or first frame: 0.000474000 seconds" size="0" pos="0" show="0.000474000"/>
    <field name="frame.number" showname="Frame Number: 13" size="0" pos="0" show="13"/>
    <field name="frame.len" showname="Frame Length: 56 bytes (448 bits)" size="0" pos="0" show="56"/>
    <field name="frame.cap_len" showname="Capture Length: 56 bytes (448 bits)" size="0" pos="0" show="56"/>
    <field name="frame.marked" showname="Frame is marked: False" size="0" pos="0" show="0"/>
    <field name="frame.ignored" showname="Frame is ignored: False" size="0" pos="0" show="0"/>
    <field name="frame.protocols" showname="Protocols in frame: null:ip:tcp" size="0" pos="0" show="null:ip:tcp"/>
  </proto>
  <proto name="null" showname="Null/Loopback" size="4" pos="0">
    <field name="null.family" showname="Family: IP (2)" size="4" pos="0" show="2" value="02000000"/>
  </proto>
  <proto name="ip" showname="Internet Protocol, Src: 127.0.0.1 (127.0.0.1), Dst: 127.0.0.1 (127.0.0.1)" size="20" pos="4">
    <field name="ip.version" showname="Version: 4" size="1" pos="4" show="4" value="45"/>
    <field name="ip.hdr_len" showname="Header length: 20 bytes" size="1" pos="4" show="20" value="45"/>
    <field name="ip.dsfield" showname="Differentiated Services Field: 0x00 (DSCP 0x00: Default; ECN: 0x00)" size="1" pos="5" show="0" value="00">
      <field name="ip.dsfield.dscp" showname="0000 00.. = Differentiated Services Codepoint: Default (0x00)" size="1" pos="5" show="0x00" value="0" unmaskedvalue="00"/>
      <field name="ip.dsfield.ect" showname=".... ..0. = ECN-Capable Transport (ECT): 0" size="1" pos="5" show="0" value="0" unmaskedvalue="00"/>
      <field name="ip.dsfield.ce" showname=".... ...0 = ECN-CE: 0" size="1" pos="5" show="0" value="0" unmaskedvalue="00"/>
    </field>
    <field name="ip.len" showname="Total Length: 52" size="2" pos="6" show="52" value="0034"/>
    <field name="ip.id" showname="Identification: 0x4fa1 (20385)" size="2" pos="8" show="0x4fa1" value="4fa1"/>
    <field name="ip.flags" showname="Flags: 0x02 (Don&apos;t Fragment)" size="1" pos="10" show="0x02" value="40">
      <field name="ip.flags.rb" showname="0... .... = Reserved bit: Not set" size="1" pos="10" show="0" value="40"/>
      <field name="ip.flags.df" showname=".1.. .... = Don&apos;t fragment: Set" size="1" pos="10" show="1" value="40"/>
      <field name="ip.flags.mf" showname="..0. .... = More fragments: Not set" size="1" pos="10" show="0" value="40"/>
    </field>
    <field name="ip.frag_offset" showname="Fragment offset: 0" size="2" pos="10" show="0" value="4000"/>
    <field name="ip.ttl" showname="Time to live: 64" size="1" pos="12" show="64" value="40"/>
    <field name="ip.proto" showname="Protocol: TCP (6)" size="1" pos="13" show="6" value="06"/>
    <field name="ip.checksum" showname="Header checksum: 0x0000 [incorrect, should be 0xed20]" size="2" pos="14" show="0x0000" value="0000">
      <field name="ip.checksum_good" showname="Good: False" size="2" pos="14" show="0" value="0000"/>
      <field name="ip.checksum_bad" showname="Bad: True" size="2" pos="14" show="1" value="0000">
        <proto name="expert" showname="Expert Info (Error/Checksum): Bad checksum" size="0" pos="0">
          <field name="expert.message" showname="Message: Bad checksum" size="0" pos="0" show="Bad checksum"/>
          <field name="expert.severity" showname="Severity level: Error" size="0" pos="0" show="Error"/>
          <field name="expert.group" showname="Group: Checksum" size="0" pos="0" show="Checksum"/>
        </proto>
      </field>
    </field>
    <field name="ip.src" showname="Source: 127.0.0.1 (127.0.0.1)" size="4" pos="16" show="127.0.0.1" value="7f000001"/>
    <field name="ip.addr" showname="Source or Destination Address: 127.0.0.1 (127.0.0.1)" hide="yes" size="4" pos="16" show="127.0.0.1" value="7f000001"/>
    <field name="ip.src_host" showname="Source Host: 127.0.0.1" hide="yes" size="4" pos="16" show="127.0.0.1" value="7f000001"/>
    <field name="ip.host" showname="Source or Destination Host: 127.0.0.1" hide="yes" size="4" pos="16" show="127.0.0.1" value="7f000001"/>
    <field name="ip.dst" showname="Destination: 127.0.0.1 (127.0.0.1)" size="4" pos="20" show="127.0.0.1" value="7f000001"/>
    <field name="ip.addr" showname="Source or Destination Address: 127.0.0.1 (127.0.0.1)" hide="yes" size="4" pos="20" show="127.0.0.1" value="7f000001"/>
    <field name="ip.dst_host" showname="Destination Host: 127.0.0.1" hide="yes" size="4" pos="20" show="127.0.0.1" value="7f000001"/>
    <field name="ip.host" showname="Source or Destination Host: 127.0.0.1" hide="yes" size="4" pos="20" show="127.0.0.1" value="7f000001"/>
  </proto>
  <proto name="tcp" showname="Transmission Control Protocol, Src Port: afs3-fileserver (7000), Dst Port: 57321 (57321), Seq: 14, Ack: 2, Len: 0" size="32" pos="24">
    <field name="tcp.srcport" showname="Source port: afs3-fileserver (7000)" size="2" pos="24" show="7000" value="1b58"/>
    <field name="tcp.dstport" showname="Destination port: 57321 (57321)" size="2" pos="26" show="57321" value="dfe9"/>
    <field name="tcp.port" showname="Source or Destination Port: 7000" hide="yes" size="2" pos="24" show="7000" value="1b58"/>
    <field name="tcp.port" showname="Source or Destination Port: 57321" hide="yes" size="2" pos="26" show="57321" value="dfe9"/>
    <field name="tcp.stream" showname="Stream index: 1" size="0" pos="24" show="1"/>
    <field name="tcp.len" showname="TCP Segment Len: 0" hide="yes" size="1" pos="36" show="0" value="80"/>
    <field name="tcp.seq" showname="Sequence number: 14    (relative sequence number)" size="4" pos="28" show="14" value="174cd739"/>
    <field name="tcp.ack" showname="Acknowledgement number: 2    (relative ack number)" size="4" pos="32" show="2" value="1c8523a0"/>
    <field name="tcp.hdr_len" showname="Header length: 32 bytes" size="1" pos="36" show="32" value="80"/>
    <field name="tcp.flags" showname="Flags: 0x10 (ACK)" size="2" pos="36" show="0x10" value="8010">
      <field name="tcp.flags.res" showname="000. .... .... = Reserved: Not set" size="1" pos="36" show="0" value="0" unmaskedvalue="80"/>
      <field name="tcp.flags.ns" showname="...0 .... .... = Nonce: Not set" size="1" pos="36" show="0" value="0" unmaskedvalue="80"/>
      <field name="tcp.flags.cwr" showname=".... 0... .... = Congestion Window Reduced (CWR): Not set" size="1" pos="37" show="0" value="0" unmaskedvalue="10"/>
      <field name="tcp.flags.ecn" showname=".... .0.. .... = ECN-Echo: Not set" size="1" pos="37" show="0" value="0" unmaskedvalue="10"/>
      <field name="tcp.flags.urg" showname=".... ..0. .... = Urgent: Not set" size="1" pos="37" show="0" value="0" unmaskedvalue="10"/>
      <field name="tcp.flags.ack" showname=".... ...1 .... = Acknowledgement: Set" size="1" pos="37" show="1" value="1" unmaskedvalue="10"/>
      <field name="tcp.flags.push" showname=".... .... 0... = Push: Not set" size="1" pos="37" show="0" value="0" unmaskedvalue="10"/>
      <field name="tcp.flags.reset" showname=".... .... .0.. = Reset: Not set" size="1" pos="37" show="0" value="0" unmaskedvalue="10"/>
      <field name="tcp.flags.syn" showname=".... .... ..0. = Syn: Not set" size="1" pos="37" show="0" value="0" unmaskedvalue="10"/>
      <field name="tcp.flags.fin" showname=".... .... ...0 = Fin: Not set" size="1" pos="37" show="0" value="0" unmaskedvalue="10"/>
    </field>
    <field name="tcp.window_size" showname="Window size: 146976 (scaled)" size="2" pos="38" show="146976" value="23e2"/>
    <field name="tcp.checksum" showname="Checksum: 0xfe28 [validation disabled]" size="2" pos="40" show="0xfe28" value="fe28">
      <field name="tcp.checksum_good" showname="Good Checksum: False" size="2" pos="40" show="0" value="fe28"/>
      <field name="tcp.checksum_bad" showname="Bad Checksum: False" size="2" pos="40" show="0" value="fe28"/>
    </field>
    <field name="tcp.options" showname="Options: (12 bytes)" size="12" pos="44" show="01:01:08:0a:11:4c:ea:90:11:4c:ea:90" value="0101080a114cea90114cea90">
      <field name="" show="NOP" size="1" pos="44" value="01"/>
      <field name="" show="NOP" size="1" pos="45" value="01"/>
      <field name="tcp.options.time_stamp" showname="TCP Time Stamp Option: True" hide="yes" size="10" pos="46" show="1" value="080a114cea90114cea90"/>
      <field name="" show="Timestamps: TSval 290253456, TSecr 290253456" size="10" pos="46" value="080a114cea90114cea90"/>
    </field>
    <field name="" show="SEQ/ACK analysis" size="0" pos="24" value="">
      <field name="tcp.analysis.acks_frame" showname="This is an ACK to the segment in frame: 12" size="0" pos="24" show="12"/>
      <field name="tcp.analysis.ack_rtt" showname="The RTT to ACK the segment was: 0.000018000 seconds" size="0" pos="24" show="0.000018000"/>
    </field>
  </proto>
</packet>


<packet>
  <proto name="geninfo" pos="0" showname="General information" size="82">
    <field name="num" pos="0" show="14" showname="Number" value="e" size="82"/>
    <field name="len" pos="0" show="82" showname="Frame Length" value="52" size="82"/>
    <field name="caplen" pos="0" show="82" showname="Captured Length" value="52" size="82"/>
    <field name="timestamp" pos="0" show="Jan  7, 2013 15:57:37.267608000 PST" showname="Captured Time" value="1357603057.267608000" size="82"/>
  </proto>
  <proto name="frame" showname="Frame 14: 82 bytes on wire (656 bits), 82 bytes captured (656 bits)" size="82" pos="0">
    <field name="frame.time" showname="Arrival Time: Jan  7, 2013 15:57:37.267608000 PST" size="0" pos="0" show="Jan  7, 2013 15:57:37.267608000"/>
    <field name="frame.time_epoch" showname="Epoch Time: 1357603057.267608000 seconds" size="0" pos="0" show="1357603057.267608000"/>
    <field name="frame.time_delta" showname="Time delta from previous captured frame: 0.993549000 seconds" size="0" pos="0" show="0.993549000"/>
    <field name="frame.time_delta_displayed" showname="Time delta from previous displayed frame: 0.993549000 seconds" size="0" pos="0" show="0.993549000"/>
    <field name="frame.time_relative" showname="Time since reference or first frame: 0.994023000 seconds" size="0" pos="0" show="0.994023000"/>
    <field name="frame.number" showname="Frame Number: 14" size="0" pos="0" show="14"/>
    <field name="frame.len" showname="Frame Length: 82 bytes (656 bits)" size="0" pos="0" show="82"/>
    <field name="frame.cap_len" showname="Capture Length: 82 bytes (656 bits)" size="0" pos="0" show="82"/>
    <field name="frame.marked" showname="Frame is marked: False" size="0" pos="0" show="0"/>
    <field name="frame.ignored" showname="Frame is ignored: False" size="0" pos="0" show="0"/>
    <field name="frame.protocols" showname="Protocols in frame: null:ip:udp:nbns" size="0" pos="0" show="null:ip:udp:nbns"/>
  </proto>
  <proto name="null" showname="Null/Loopback" size="4" pos="0">
    <field name="null.family" showname="Family: IP (2)" size="4" pos="0" show="2" value="02000000"/>
  </proto>
  <proto name="ip" showname="Internet Protocol, Src: 192.168.4.223 (192.168.4.223), Dst: 192.168.4.255 (192.168.4.255)" size="20" pos="4">
    <field name="ip.version" showname="Version: 4" size="1" pos="4" show="4" value="45"/>
    <field name="ip.hdr_len" showname="Header length: 20 bytes" size="1" pos="4" show="20" value="45"/>
    <field name="ip.dsfield" showname="Differentiated Services Field: 0x00 (DSCP 0x00: Default; ECN: 0x00)" size="1" pos="5" show="0" value="00">
      <field name="ip.dsfield.dscp" showname="0000 00.. = Differentiated Services Codepoint: Default (0x00)" size="1" pos="5" show="0x00" value="0" unmaskedvalue="00"/>
      <field name="ip.dsfield.ect" showname=".... ..0. = ECN-Capable Transport (ECT): 0" size="1" pos="5" show="0" value="0" unmaskedvalue="00"/>
      <field name="ip.dsfield.ce" showname=".... ...0 = ECN-CE: 0" size="1" pos="5" show="0" value="0" unmaskedvalue="00"/>
    </field>
    <field name="ip.len" showname="Total Length: 78" size="2" pos="6" show="78" value="004e"/>
    <field name="ip.id" showname="Identification: 0x83d7 (33751)" size="2" pos="8" show="0x83d7" value="83d7"/>
    <field name="ip.flags" showname="Flags: 0x00" size="1" pos="10" show="0x00" value="00">
      <field name="ip.flags.rb" showname="0... .... = Reserved bit: Not set" size="1" pos="10" show="0" value="00"/>
      <field name="ip.flags.df" showname=".0.. .... = Don&apos;t fragment: Not set" size="1" pos="10" show="0" value="00"/>
      <field name="ip.flags.mf" showname="..0. .... = More fragments: Not set" size="1" pos="10" show="0" value="00"/>
    </field>
    <field name="ip.frag_offset" showname="Fragment offset: 0" size="2" pos="10" show="0" value="0000"/>
    <field name="ip.ttl" showname="Time to live: 64" size="1" pos="12" show="64" value="40"/>
    <field name="ip.proto" showname="Protocol: UDP (17)" size="1" pos="13" show="17" value="11"/>
    <field name="ip.checksum" showname="Header checksum: 0x0000 [incorrect, should be 0x6b99]" size="2" pos="14" show="0x0000" value="0000">
      <field name="ip.checksum_good" showname="Good: False" size="2" pos="14" show="0" value="0000"/>
      <field name="ip.checksum_bad" showname="Bad: True" size="2" pos="14" show="1" value="0000">
        <proto name="expert" showname="Expert Info (Error/Checksum): Bad checksum" size="0" pos="0">
          <field name="expert.message" showname="Message: Bad checksum" size="0" pos="0" show="Bad checksum"/>
          <field name="expert.severity" showname="Severity level: Error" size="0" pos="0" show="Error"/>
          <field name="expert.group" showname="Group: Checksum" size="0" pos="0" show="Checksum"/>
        </proto>
      </field>
    </field>
    <field name="ip.src" showname="Source: 192.168.4.223 (192.168.4.223)" size="4" pos="16" show="192.168.4.223" value="c0a804df"/>
    <field name="ip.addr" showname="Source or Destination Address: 192.168.4.223 (192.168.4.223)" hide="yes" size="4" pos="16" show="192.168.4.223" value="c0a804df"/>
    <field name="ip.src_host" showname="Source Host: 192.168.4.223" hide="yes" size="4" pos="16" show="192.168.4.223" value="c0a804df"/>
    <field name="ip.host" showname="Source or Destination Host: 192.168.4.223" hide="yes" size="4" pos="16" show="192.168.4.223" value="c0a804df"/>
    <field name="ip.dst" showname="Destination: 192.168.4.255 (192.168.4.255)" size="4" pos="20" show="192.168.4.255" value="c0a804ff"/>
    <field name="ip.addr" showname="Source or Destination Address: 192.168.4.255 (192.168.4.255)" hide="yes" size="4" pos="20" show="192.168.4.255" value="c0a804ff"/>
    <field name="ip.dst_host" showname="Destination Host: 192.168.4.255" hide="yes" size="4" pos="20" show="192.168.4.255" value="c0a804ff"/>
    <field name="ip.host" showname="Source or Destination Host: 192.168.4.255" hide="yes" size="4" pos="20" show="192.168.4.255" value="c0a804ff"/>
  </proto>
  <proto name="udp" showname="User Datagram Protocol, Src Port: netbios-ns (137), Dst Port: netbios-ns (137)" size="8" pos="24">
    <field name="udp.srcport" showname="Source port: netbios-ns (137)" size="2" pos="24" show="137" value="0089"/>
    <field name="udp.dstport" showname="Destination port: netbios-ns (137)" size="2" pos="26" show="137" value="0089"/>
    <field name="udp.port" showname="Source or Destination Port: 137" hide="yes" size="2" pos="24" show="137" value="0089"/>
    <field name="udp.port" showname="Source or Destination Port: 137" hide="yes" size="2" pos="26" show="137" value="0089"/>
    <field name="udp.length" showname="Length: 58" size="2" pos="28" show="58" value="003a"/>
    <field name="udp.checksum_coverage" showname="Checksum coverage: 58" hide="yes" size="0" pos="28" show="58"/>
    <field name="udp.checksum" showname="Checksum: 0x8b7a [validation disabled]" size="2" pos="30" show="0x8b7a" value="8b7a">
      <field name="udp.checksum_good" showname="Good Checksum: False" size="2" pos="30" show="0" value="8b7a"/>
      <field name="udp.checksum_bad" showname="Bad Checksum: False" size="2" pos="30" show="0" value="8b7a"/>
    </field>
  </proto>
  <proto name="nbns" showname="NetBIOS Name Service" size="50" pos="32">
    <field name="nbns.id" showname="Transaction ID: 0x5684" size="2" pos="32" show="0x5684" value="5684"/>
    <field name="nbns.flags" showname="Flags: 0x0110 (Name query)" size="2" pos="34" show="0x0110" value="0110">
      <field name="nbns.flags.response" showname="0... .... .... .... = Response: Message is a query" size="2" pos="34" show="0" value="0" unmaskedvalue="0110"/>
      <field name="nbns.flags.opcode" showname=".000 0... .... .... = Opcode: Name query (0)" size="2" pos="34" show="0" value="0" unmaskedvalue="0110"/>
      <field name="nbns.flags.truncated" showname=".... ..0. .... .... = Truncated: Message is not truncated" size="2" pos="34" show="0" value="0" unmaskedvalue="0110"/>
      <field name="nbns.flags.recdesired" showname=".... ...1 .... .... = Recursion desired: Do query recursively" size="2" pos="34" show="1" value="1" unmaskedvalue="0110"/>
      <field name="nbns.flags.broadcast" showname=".... .... ...1 .... = Broadcast: Broadcast packet" size="2" pos="34" show="1" value="1" unmaskedvalue="0110"/>
    </field>
    <field name="nbns.count.queries" showname="Questions: 1" size="2" pos="36" show="1" value="0001"/>
    <field name="nbns.count.answers" showname="Answer RRs: 0" size="2" pos="38" show="0" value="0000"/>
    <field name="nbns.count.auth_rr" showname="Authority RRs: 0" size="2" pos="40" show="0" value="0000"/>
    <field name="nbns.count.add_rr" showname="Additional RRs: 0" size="2" pos="42" show="0" value="0000"/>
    <field name="" show="Queries" size="38" pos="44" value="204142414346504650454e464445434643455046484644454646504650414341420000200001">
      <field name="" show="&lt;01&gt;&lt;02&gt;__MSBROWSE__&lt;02&gt;&lt;01&gt;: type NB, class IN" size="38" pos="44" value="204142414346504650454e464445434643455046484644454646504650414341420000200001">
        <field name="" show="Name: &lt;01&gt;&lt;02&gt;__MSBROWSE__&lt;02&gt;&lt;01&gt; (Browser)" size="34" pos="44" value="204142414346504650454e4644454346434550464846444546465046504143414200"/>
        <field name="" show="Type: NB" size="2" pos="78" value="0020"/>
        <field name="" show="Class: IN" size="2" pos="80" value="0001"/>
      </field>
    </field>
  </proto>
</packet>


<packet>
  <proto name="geninfo" pos="0" showname="General information" size="82">
    <field name="num" pos="0" show="15" showname="Number" value="f" size="82"/>
    <field name="len" pos="0" show="82" showname="Frame Length" value="52" size="82"/>
    <field name="caplen" pos="0" show="82" showname="Captured Length" value="52" size="82"/>
    <field name="timestamp" pos="0" show="Jan  7, 2013 15:57:37.267642000 PST" showname="Captured Time" value="1357603057.267642000" size="82"/>
  </proto>
  <proto name="frame" showname="Frame 15: 82 bytes on wire (656 bits), 82 bytes captured (656 bits)" size="82" pos="0">
    <field name="frame.time" showname="Arrival Time: Jan  7, 2013 15:57:37.267642000 PST" size="0" pos="0" show="Jan  7, 2013 15:57:37.267642000"/>
    <field name="frame.time_epoch" showname="Epoch Time: 1357603057.267642000 seconds" size="0" pos="0" show="1357603057.267642000"/>
    <field name="frame.time_delta" showname="Time delta from previous captured frame: 0.000034000 seconds" size="0" pos="0" show="0.000034000"/>
    <field name="frame.time_delta_displayed" showname="Time delta from previous displayed frame: 0.000034000 seconds" size="0" pos="0" show="0.000034000"/>
    <field name="frame.time_relative" showname="Time since reference or first frame: 0.994057000 seconds" size="0" pos="0" show="0.994057000"/>
    <field name="frame.number" showname="Frame Number: 15" size="0" pos="0" show="15"/>
    <field name="frame.len" showname="Frame Length: 82 bytes (656 bits)" size="0" pos="0" show="82"/>
    <field name="frame.cap_len" showname="Capture Length: 82 bytes (656 bits)" size="0" pos="0" show="82"/>
    <field name="frame.marked" showname="Frame is marked: False" size="0" pos="0" show="0"/>
    <field name="frame.ignored" showname="Frame is ignored: False" size="0" pos="0" show="0"/>
    <field name="frame.protocols" showname="Protocols in frame: null:ip:udp:nbns" size="0" pos="0" show="null:ip:udp:nbns"/>
  </proto>
  <proto name="null" showname="Null/Loopback" size="4" pos="0">
    <field name="null.family" showname="Family: IP (2)" size="4" pos="0" show="2" value="02000000"/>
  </proto>
  <proto name="ip" showname="Internet Protocol, Src: 192.168.4.224 (192.168.4.224), Dst: 192.168.4.255 (192.168.4.255)" size="20" pos="4">
    <field name="ip.version" showname="Version: 4" size="1" pos="4" show="4" value="45"/>
    <field name="ip.hdr_len" showname="Header length: 20 bytes" size="1" pos="4" show="20" value="45"/>
    <field name="ip.dsfield" showname="Differentiated Services Field: 0x00 (DSCP 0x00: Default; ECN: 0x00)" size="1" pos="5" show="0" value="00">
      <field name="ip.dsfield.dscp" showname="0000 00.. = Differentiated Services Codepoint: Default (0x00)" size="1" pos="5" show="0x00" value="0" unmaskedvalue="00"/>
      <field name="ip.dsfield.ect" showname=".... ..0. = ECN-Capable Transport (ECT): 0" size="1" pos="5" show="0" value="0" unmaskedvalue="00"/>
      <field name="ip.dsfield.ce" showname=".... ...0 = ECN-CE: 0" size="1" pos="5" show="0" value="0" unmaskedvalue="00"/>
    </field>
    <field name="ip.len" showname="Total Length: 78" size="2" pos="6" show="78" value="004e"/>
    <field name="ip.id" showname="Identification: 0x9689 (38537)" size="2" pos="8" show="0x9689" value="9689"/>
    <field name="ip.flags" showname="Flags: 0x00" size="1" pos="10" show="0x00" value="00">
      <field name="ip.flags.rb" showname="0... .... = Reserved bit: Not set" size="1" pos="10" show="0" value="00"/>
      <field name="ip.flags.df" showname=".0.. .... = Don&apos;t fragment: Not set" size="1" pos="10" show="0" value="00"/>
      <field name="ip.flags.mf" showname="..0. .... = More fragments: Not set" size="1" pos="10" show="0" value="00"/>
    </field>
    <field name="ip.frag_offset" showname="Fragment offset: 0" size="2" pos="10" show="0" value="0000"/>
    <field name="ip.ttl" showname="Time to live: 64" size="1" pos="12" show="64" value="40"/>
    <field name="ip.proto" showname="Protocol: UDP (17)" size="1" pos="13" show="17" value="11"/>
    <field name="ip.checksum" showname="Header checksum: 0x58e6 [correct]" size="2" pos="14" show="0x58e6" value="58e6">
      <field name="ip.checksum_good" showname="Good: True" size="2" pos="14" show="1" value="58e6"/>
      <field name="ip.checksum_bad" showname="Bad: False" size="2" pos="14" show="0" value="58e6"/>
    </field>
    <field name="ip.src" showname="Source: 192.168.4.224 (192.168.4.224)" size="4" pos="16" show="192.168.4.224" value="c0a804e0"/>
    <field name="ip.addr" showname="Source or Destination Address: 192.168.4.224 (192.168.4.224)" hide="yes" size="4" pos="16" show="192.168.4.224" value="c0a804e0"/>
    <field name="ip.src_host" showname="Source Host: 192.168.4.224" hide="yes" size="4" pos="16" show="192.168.4.224" value="c0a804e0"/>
    <field name="ip.host" showname="Source or Destination Host: 192.168.4.224" hide="yes" size="4" pos="16" show="192.168.4.224" value="c0a804e0"/>
    <field name="ip.dst" showname="Destination: 192.168.4.255 (192.168.4.255)" size="4" pos="20" show="192.168.4.255" value="c0a804ff"/>
    <field name="ip.addr" showname="Source or Destination Address: 192.168.4.255 (192.168.4.255)" hide="yes" size="4" pos="20" show="192.168.4.255" value="c0a804ff"/>
    <field name="ip.dst_host" showname="Destination Host: 192.168.4.255" hide="yes" size="4" pos="20" show="192.168.4.255" value="c0a804ff"/>
    <field name="ip.host" showname="Source or Destination Host: 192.168.4.255" hide="yes" size="4" pos="20" show="192.168.4.255" value="c0a804ff"/>
  </proto>
  <proto name="udp" showname="User Datagram Protocol, Src Port: netbios-ns (137), Dst Port: netbios-ns (137)" size="8" pos="24">
    <field name="udp.srcport" showname="Source port: netbios-ns (137)" size="2" pos="24" show="137" value="0089"/>
    <field name="udp.dstport" showname="Destination port: netbios-ns (137)" size="2" pos="26" show="137" value="0089"/>
    <field name="udp.port" showname="Source or Destination Port: 137" hide="yes" size="2" pos="24" show="137" value="0089"/>
    <field name="udp.port" showname="Source or Destination Port: 137" hide="yes" size="2" pos="26" show="137" value="0089"/>
    <field name="udp.length" showname="Length: 58" size="2" pos="28" show="58" value="003a"/>
    <field name="udp.checksum_coverage" showname="Checksum coverage: 58" hide="yes" size="0" pos="28" show="58"/>
    <field name="udp.checksum" showname="Checksum: 0x7335 [validation disabled]" size="2" pos="30" show="0x7335" value="7335">
      <field name="udp.checksum_good" showname="Good Checksum: False" size="2" pos="30" show="0" value="7335"/>
      <field name="udp.checksum_bad" showname="Bad Checksum: False" size="2" pos="30" show="0" value="7335"/>
    </field>
  </proto>
  <proto name="nbns" showname="NetBIOS Name Service" size="50" pos="32">
    <field name="nbns.id" showname="Transaction ID: 0x5684" size="2" pos="32" show="0x5684" value="5684"/>
    <field name="nbns.flags" showname="Flags: 0x0110 (Name query)" size="2" pos="34" show="0x0110" value="0110">
      <field name="nbns.flags.response" showname="0... .... .... .... = Response: Message is a query" size="2" pos="34" show="0" value="0" unmaskedvalue="0110"/>
      <field name="nbns.flags.opcode" showname=".000 0... .... .... = Opcode: Name query (0)" size="2" pos="34" show="0" value="0" unmaskedvalue="0110"/>
      <field name="nbns.flags.truncated" showname=".... ..0. .... .... = Truncated: Message is not truncated" size="2" pos="34" show="0" value="0" unmaskedvalue="0110"/>
      <field name="nbns.flags.recdesired" showname=".... ...1 .... .... = Recursion desired: Do query recursively" size="2" pos="34" show="1" value="1" unmaskedvalue="0110"/>
      <field name="nbns.flags.broadcast" showname=".... .... ...1 .... = Broadcast: Broadcast packet" size="2" pos="34" show="1" value="1" unmaskedvalue="0110"/>
    </field>
    <field name="nbns.count.queries" showname="Questions: 1" size="2" pos="36" show="1" value="0001"/>
    <field name="nbns.count.answers" showname="Answer RRs: 0" size="2" pos="38" show="0" value="0000"/>
    <field name="nbns.count.auth_rr" showname="Authority RRs: 0" size="2" pos="40" show="0" value="0000"/>
    <field name="nbns.count.add_rr" showname="Additional RRs: 0" size="2" pos="42" show="0" value="0000"/>
    <field name="" show="Queries" size="38" pos="44" value="204142414346504650454e464445434643455046484644454646504650414341420000200001">
      <field name="" show="&lt;01&gt;&lt;02&gt;__MSBROWSE__&lt;02&gt;&lt;01&gt;: type NB, class IN" size="38" pos="44" value="204142414346504650454e464445434643455046484644454646504650414341420000200001">
        <field name="" show="Name: &lt;01&gt;&lt;02&gt;__MSBROWSE__&lt;02&gt;&lt;01&gt; (Browser)" size="34" pos="44" value="204142414346504650454e4644454346434550464846444546465046504143414200"/>
        <field name="" show="Type: NB" size="2" pos="78" value="0020"/>
        <field name="" show="Class: IN" size="2" pos="80" value="0001"/>
      </field>
    </field>
  </proto>
</packet>


<packet>
  <proto name="geninfo" pos="0" showname="General information" size="206">
    <field name="num" pos="0" show="16" showname="Number" value="10" size="206"/>
    <field name="len" pos="0" show="206" showname="Frame Length" value="ce" size="206"/>
    <field name="caplen" pos="0" show="206" showname="Captured Length" value="ce" size="206"/>
    <field name="timestamp" pos="0" show="Jan  7, 2013 15:57:37.307837000 PST" showname="Captured Time" value="1357603057.307837000" size="206"/>
  </proto>
  <proto name="frame" showname="Frame 16: 206 bytes on wire (1648 bits), 206 bytes captured (1648 bits)" size="206" pos="0">
    <field name="frame.time" showname="Arrival Time: Jan  7, 2013 15:57:37.307837000 PST" size="0" pos="0" show="Jan  7, 2013 15:57:37.307837000"/>
    <field name="frame.time_epoch" showname="Epoch Time: 1357603057.307837000 seconds" size="0" pos="0" show="1357603057.307837000"/>
    <field name="frame.time_delta" showname="Time delta from previous captured frame: 0.040195000 seconds" size="0" pos="0" show="0.040195000"/>
    <field name="frame.time_delta_displayed" showname="Time delta from previous displayed frame: 0.040195000 seconds" size="0" pos="0" show="0.040195000"/>
    <field name="frame.time_relative" showname="Time since reference or first frame: 1.034252000 seconds" size="0" pos="0" show="1.034252000"/>
    <field name="frame.number" showname="Frame Number: 16" size="0" pos="0" show="16"/>
    <field name="frame.len" showname="Frame Length: 206 bytes (1648 bits)" size="0" pos="0" show="206"/>
    <field name="frame.cap_len" showname="Capture Length: 206 bytes (1648 bits)" size="0" pos="0" show="206"/>
    <field name="frame.marked" showname="Frame is marked: False" size="0" pos="0" show="0"/>
    <field name="frame.ignored" showname="Frame is ignored: False" size="0" pos="0" show="0"/>
    <field name="frame.protocols" showname="Protocols in frame: null:ip:udp:nbdgm:smb:browser" size="0" pos="0" show="null:ip:udp:nbdgm:smb:browser"/>
  </proto>
  <proto name="null" showname="Null/Loopback" size="4" pos="0">
    <field name="null.family" showname="Family: IP (2)" size="4" pos="0" show="2" value="02000000"/>
  </proto>
  <proto name="ip" showname="Internet Protocol, Src: 192.168.4.223 (192.168.4.223), Dst: 192.168.4.255 (192.168.4.255)" size="20" pos="4">
    <field name="ip.version" showname="Version: 4" size="1" pos="4" show="4" value="45"/>
    <field name="ip.hdr_len" showname="Header length: 20 bytes" size="1" pos="4" show="20" value="45"/>
    <field name="ip.dsfield" showname="Differentiated Services Field: 0x00 (DSCP 0x00: Default; ECN: 0x00)" size="1" pos="5" show="0" value="00">
      <field name="ip.dsfield.dscp" showname="0000 00.. = Differentiated Services Codepoint: Default (0x00)" size="1" pos="5" show="0x00" value="0" unmaskedvalue="00"/>
      <field name="ip.dsfield.ect" showname=".... ..0. = ECN-Capable Transport (ECT): 0" size="1" pos="5" show="0" value="0" unmaskedvalue="00"/>
      <field name="ip.dsfield.ce" showname=".... ...0 = ECN-CE: 0" size="1" pos="5" show="0" value="0" unmaskedvalue="00"/>
    </field>
    <field name="ip.len" showname="Total Length: 202" size="2" pos="6" show="202" value="00ca"/>
    <field name="ip.id" showname="Identification: 0xf3ed (62445)" size="2" pos="8" show="0xf3ed" value="f3ed"/>
    <field name="ip.flags" showname="Flags: 0x00" size="1" pos="10" show="0x00" value="00">
      <field name="ip.flags.rb" showname="0... .... = Reserved bit: Not set" size="1" pos="10" show="0" value="00"/>
      <field name="ip.flags.df" showname=".0.. .... = Don&apos;t fragment: Not set" size="1" pos="10" show="0" value="00"/>
      <field name="ip.flags.mf" showname="..0. .... = More fragments: Not set" size="1" pos="10" show="0" value="00"/>
    </field>
    <field name="ip.frag_offset" showname="Fragment offset: 0" size="2" pos="10" show="0" value="0000"/>
    <field name="ip.ttl" showname="Time to live: 64" size="1" pos="12" show="64" value="40"/>
    <field name="ip.proto" showname="Protocol: UDP (17)" size="1" pos="13" show="17" value="11"/>
    <field name="ip.checksum" showname="Header checksum: 0x0000 [incorrect, should be 0xfb06]" size="2" pos="14" show="0x0000" value="0000">
      <field name="ip.checksum_good" showname="Good: False" size="2" pos="14" show="0" value="0000"/>
      <field name="ip.checksum_bad" showname="Bad: True" size="2" pos="14" show="1" value="0000">
        <proto name="expert" showname="Expert Info (Error/Checksum): Bad checksum" size="0" pos="0">
          <field name="expert.message" showname="Message: Bad checksum" size="0" pos="0" show="Bad checksum"/>
          <field name="expert.severity" showname="Severity level: Error" size="0" pos="0" show="Error"/>
          <field name="expert.group" showname="Group: Checksum" size="0" pos="0" show="Checksum"/>
        </proto>
      </field>
    </field>
    <field name="ip.src" showname="Source: 192.168.4.223 (192.168.4.223)" size="4" pos="16" show="192.168.4.223" value="c0a804df"/>
    <field name="ip.addr" showname="Source or Destination Address: 192.168.4.223 (192.168.4.223)" hide="yes" size="4" pos="16" show="192.168.4.223" value="c0a804df"/>
    <field name="ip.src_host" showname="Source Host: 192.168.4.223" hide="yes" size="4" pos="16" show="192.168.4.223" value="c0a804df"/>
    <field name="ip.host" showname="Source or Destination Host: 192.168.4.223" hide="yes" size="4" pos="16" show="192.168.4.223" value="c0a804df"/>
    <field name="ip.dst" showname="Destination: 192.168.4.255 (192.168.4.255)" size="4" pos="20" show="192.168.4.255" value="c0a804ff"/>
    <field name="ip.addr" showname="Source or Destination Address: 192.168.4.255 (192.168.4.255)" hide="yes" size="4" pos="20" show="192.168.4.255" value="c0a804ff"/>
    <field name="ip.dst_host" showname="Destination Host: 192.168.4.255" hide="yes" size="4" pos="20" show="192.168.4.255" value="c0a804ff"/>
    <field name="ip.host" showname="Source or Destination Host: 192.168.4.255" hide="yes" size="4" pos="20" show="192.168.4.255" value="c0a804ff"/>
  </proto>
  <proto name="udp" showname="User Datagram Protocol, Src Port: netbios-dgm (138), Dst Port: netbios-dgm (138)" size="8" pos="24">
    <field name="udp.srcport" showname="Source port: netbios-dgm (138)" size="2" pos="24" show="138" value="008a"/>
    <field name="udp.dstport" showname="Destination port: netbios-dgm (138)" size="2" pos="26" show="138" value="008a"/>
    <field name="udp.port" showname="Source or Destination Port: 138" hide="yes" size="2" pos="24" show="138" value="008a"/>
    <field name="udp.port" showname="Source or Destination Port: 138" hide="yes" size="2" pos="26" show="138" value="008a"/>
    <field name="udp.length" showname="Length: 182" size="2" pos="28" show="182" value="00b6"/>
    <field name="udp.checksum_coverage" showname="Checksum coverage: 182" hide="yes" size="0" pos="28" show="182"/>
    <field name="udp.checksum" showname="Checksum: 0x8bf6 [validation disabled]" size="2" pos="30" show="0x8bf6" value="8bf6">
      <field name="udp.checksum_good" showname="Good Checksum: False" size="2" pos="30" show="0" value="8bf6"/>
      <field name="udp.checksum_bad" showname="Bad Checksum: False" size="2" pos="30" show="0" value="8bf6"/>
    </field>
  </proto>
  <proto name="nbdgm" showname="NetBIOS Datagram Service" size="82" pos="32">
    <field name="nbdgm.type" showname="Message Type: Direct_group datagram (17)" size="1" pos="32" show="17" value="11"/>
    <field name="nbdgm.next" showname="More fragments follow: No" size="1" pos="33" show="0" value="02"/>
    <field name="nbdgm.first" showname="This is first fragment: Yes" size="1" pos="33" show="1" value="02"/>
    <field name="nbdgm.node_type" showname="Node Type: B node (0)" size="1" pos="33" show="0" value="02"/>
    <field name="nbdgm.dgram_id" showname="Datagram ID: 0x5687" size="2" pos="34" show="0x5687" value="5687"/>
    <field name="nbdgm.src.ip" showname="Source IP: 192.168.4.223 (192.168.4.223)" size="4" pos="36" show="192.168.4.223" value="c0a804df"/>
    <field name="nbdgm.src.port" showname="Source Port: 0" size="2" pos="40" show="0" value="0000"/>
    <field name="" show="Datagram length: 160 bytes" size="2" pos="42" value="00a0"/>
    <field name="" show="Packet offset: 0 bytes" size="2" pos="44" value="0000"/>
    <field name="" show="Source name: MACBOOKPRO-E139&lt;00&gt; (Workstation/Redirector)" size="34" pos="46" value="20454e45424544454345504550454c464146434550434e454644424444444a414100"/>
    <field name="" show="Destination name: WORKGROUP&lt;1d&gt; (Local Master Browser)" size="34" pos="80" value="20464845504643454c45484643455046464641434143414341434143414341424e00"/>
  </proto>
  <proto name="smb" showname="SMB (Server Message Block Protocol)" size="92" pos="114">
    <field name="" show="SMB Header" size="32" pos="114" value="ff534d42250000000000000000000000000000000000000000004e0000008656">
      <field name="" show="Server Component: SMB" size="4" pos="114" value="ff534d42"/>
      <field name="smb.cmd" showname="SMB Command: Trans (0x25)" size="1" pos="118" show="0x25" value="25"/>
      <field name="smb.error_class" showname="Error Class: Success (0x00)" size="1" pos="119" show="0x00" value="00"/>
      <field name="smb.reserved" showname="Reserved: 00" size="1" pos="120" show="00" value="00"/>
      <field name="smb.error_code" showname="Error Code: No Error" size="2" pos="121" show="0x0000" value="0000"/>
      <field name="" show="Flags: 0x00" size="1" pos="123" value="00">
        <field name="smb.flags.response" showname="0... .... = Request/Response: Message is a request to the server" size="1" pos="123" show="0" value="0" unmaskedvalue="00"/>
        <field name="smb.flags.notify" showname=".0.. .... = Notify: Notify client only on open" size="1" pos="123" show="0" value="0" unmaskedvalue="00"/>
        <field name="smb.flags.oplock" showname="..0. .... = Oplocks: OpLock not requested/granted" size="1" pos="123" show="0" value="0" unmaskedvalue="00"/>
        <field name="smb.flags.canon" showname="...0 .... = Canonicalized Pathnames: Pathnames are not canonicalized" size="1" pos="123" show="0" value="0" unmaskedvalue="00"/>
        <field name="smb.flags.caseless" showname=".... 0... = Case Sensitivity: Path names are case sensitive" size="1" pos="123" show="0" value="0" unmaskedvalue="00"/>
        <field name="smb.flags.receive_buffer" showname=".... ..0. = Receive Buffer Posted: Receive buffer has not been posted" size="1" pos="123" show="0" value="0" unmaskedvalue="00"/>
        <field name="smb.flags.lock" showname=".... ...0 = Lock and Read: Lock&amp;Read, Write&amp;Unlock are not supported" size="1" pos="123" show="0" value="0" unmaskedvalue="00"/>
      </field>
      <field name="" show="Flags2: 0x0000" size="2" pos="124" value="0000">
        <field name="smb.flags2.string" showname="0... .... .... .... = Unicode Strings: Strings are ASCII" size="2" pos="124" show="0" value="0" unmaskedvalue="0000"/>
        <field name="smb.flags2.nt_error" showname=".0.. .... .... .... = Error Code Type: Error codes are DOS error codes" size="2" pos="124" show="0" value="0" unmaskedvalue="0000"/>
        <field name="smb.flags2.roe" showname="..0. .... .... .... = Execute-only Reads: Don&apos;t permit reads if execute-only" size="2" pos="124" show="0" value="0" unmaskedvalue="0000"/>
        <field name="smb.flags2.dfs" showname="...0 .... .... .... = Dfs: Don&apos;t resolve pathnames with Dfs" size="2" pos="124" show="0" value="0" unmaskedvalue="0000"/>
        <field name="smb.flags2.esn" showname=".... 0... .... .... = Extended Security Negotiation: Extended security negotiation is not supported" size="2" pos="124" show="0" value="0" unmaskedvalue="0000"/>
        <field name="smb.flags2.long_names_used" showname=".... .... .0.. .... = Long Names Used: Path names in request are not long file names" size="2" pos="124" show="0" value="0" unmaskedvalue="0000"/>
        <field name="smb.flags2.sec_sig" showname=".... .... .... .0.. = Security Signatures: Security signatures are not supported" size="2" pos="124" show="0" value="0" unmaskedvalue="0000"/>
        <field name="smb.flags2.ea" showname=".... .... .... ..0. = Extended Attributes: Extended attributes are not supported" size="2" pos="124" show="0" value="0" unmaskedvalue="0000"/>
        <field name="smb.flags2.long_names_allowed" showname=".... .... .... ...0 = Long Names Allowed: Long file names are not allowed in the response" size="2" pos="124" show="0" value="0" unmaskedvalue="0000"/>
      </field>
      <field name="smb.pid.high" showname="Process ID High: 0" size="2" pos="126" show="0" value="0000"/>
      <field name="smb.signature" showname="Signature: 0000000000000000" size="8" pos="128" show="00:00:00:00:00:00:00:00" value="0000000000000000"/>
      <field name="smb.reserved" showname="Reserved: 0000" size="2" pos="136" show="00:00" value="0000"/>
      <field name="smb.tid" showname="Tree ID: 0" size="2" pos="138" show="0" value="0000"/>
      <field name="smb.pid" showname="Process ID: 78" size="2" pos="140" show="78" value="4e00"/>
      <field name="smb.uid" showname="User ID: 0" size="2" pos="142" show="0" value="0000"/>
      <field name="smb.mid" showname="Multiplex ID: 22150" size="2" pos="144" show="22150" value="8656"/>
    </field>
    <field name="" show="Trans Request (0x25)" size="60" pos="146" value="110000060000000000000002000000000000000000000006005600030001000100020017005c4d41494c534c4f545c42524f57534500090485560000">
      <field name="smb.wct" showname="Word Count (WCT): 17" size="1" pos="146" show="17" value="11"/>
      <field name="smb.tpc" showname="Total Parameter Count: 0" size="2" pos="147" show="0" value="0000"/>
      <field name="smb.tdc" showname="Total Data Count: 6" size="2" pos="149" show="6" value="0600"/>
      <field name="smb.mpc" showname="Max Parameter Count: 0" size="2" pos="151" show="0" value="0000"/>
      <field name="smb.mdc" showname="Max Data Count: 0" size="2" pos="153" show="0" value="0000"/>
      <field name="smb.msc" showname="Max Setup Count: 0" size="1" pos="155" show="0" value="00"/>
      <field name="smb.reserved" showname="Reserved: 00" size="1" pos="156" show="00" value="00"/>
      <field name="" show="Flags: 0x0002" size="2" pos="157" value="0200">
        <field name="smb.transaction.flags.owt" showname=".... .... .... ..1. = One Way Transaction: One Way Transaction (NO RESPONSE)" size="2" pos="157" show="1" value="1" unmaskedvalue="0200"/>
        <field name="smb.transaction.flags.dtid" showname=".... .... .... ...0 = Disconnect TID: Do NOT disconnect TID" size="2" pos="157" show="0" value="0" unmaskedvalue="0200"/>
      </field>
      <field name="smb.timeout" showname="Timeout: Return immediately (0)" size="4" pos="159" show="0" value="00000000"/>
      <field name="smb.reserved" showname="Reserved: 0000" size="2" pos="163" show="00:00" value="0000"/>
      <field name="smb.pc" showname="Parameter Count: 0" size="2" pos="165" show="0" value="0000"/>
      <field name="smb.po" showname="Parameter Offset: 0" size="2" pos="167" show="0" value="0000"/>
      <field name="smb.dc" showname="Data Count: 6" size="2" pos="169" show="6" value="0600"/>
      <field name="smb.data_offset" showname="Data Offset: 86" size="2" pos="171" show="86" value="5600"/>
      <field name="smb.sc" showname="Setup Count: 3" size="1" pos="173" show="3" value="03"/>
      <field name="smb.reserved" showname="Reserved: 00" size="1" pos="174" show="00" value="00"/>
      <field name="smb.bcc" showname="Byte Count (BCC): 23" size="2" pos="181" show="23" value="1700"/>
      <field name="smb.trans_name" showname="Transaction Name: \MAILSLOT\BROWSE" size="17" pos="183" show="\\MAILSLOT\\BROWSE" value="5c4d41494c534c4f545c42524f57534500"/>
    </field>
  </proto>
  <proto name="mailslot" showname="SMB MailSlot Protocol" size="25" pos="175">
    <field name="mailslot.opcode" showname="Opcode: Write Mail Slot (1)" size="2" pos="175" show="1" value="0100"/>
    <field name="mailslot.priority" showname="Priority: 1" size="2" pos="177" show="1" value="0100"/>
    <field name="mailslot.class" showname="Class: Unreliable &amp; Broadcast (2)" size="2" pos="179" show="2" value="0200"/>
    <field name="mailslot.size" showname="Size: 23" size="2" pos="181" show="23" value="1700"/>
    <field name="mailslot.name" showname="Mailslot Name: \MAILSLOT\BROWSE" size="17" pos="183" show="\\MAILSLOT\\BROWSE" value="5c4d41494c534c4f545c42524f57534500"/>
  </proto>
  <proto name="browser" showname="Microsoft Windows Browser Protocol" size="6" pos="200">
    <field name="browser.command" showname="Command: Get Backup List Request (0x09)" size="1" pos="200" show="0x09" value="09"/>
    <field name="browser.backup.count" showname="Backup List Requested Count: 4" size="1" pos="201" show="4" value="04"/>
    <field name="browser.backup.token" showname="Backup Request Token: 22149" size="4" pos="202" show="22149" value="85560000"/>
  </proto>
</packet>


<packet>
  <proto name="geninfo" pos="0" showname="General information" size="206">
    <field name="num" pos="0" show="17" showname="Number" value="11" size="206"/>
    <field name="len" pos="0" show="206" showname="Frame Length" value="ce" size="206"/>
    <field name="caplen" pos="0" show="206" showname="Captured Length" value="ce" size="206"/>
    <field name="timestamp" pos="0" show="Jan  7, 2013 15:57:37.307862000 PST" showname="Captured Time" value="1357603057.307862000" size="206"/>
  </proto>
  <proto name="frame" showname="Frame 17: 206 bytes on wire (1648 bits), 206 bytes captured (1648 bits)" size="206" pos="0">
    <field name="frame.time" showname="Arrival Time: Jan  7, 2013 15:57:37.307862000 PST" size="0" pos="0" show="Jan  7, 2013 15:57:37.307862000"/>
    <field name="frame.time_epoch" showname="Epoch Time: 1357603057.307862000 seconds" size="0" pos="0" show="1357603057.307862000"/>
    <field name="frame.time_delta" showname="Time delta from previous captured frame: 0.000025000 seconds" size="0" pos="0" show="0.000025000"/>
    <field name="frame.time_delta_displayed" showname="Time delta from previous displayed frame: 0.000025000 seconds" size="0" pos="0" show="0.000025000"/>
    <field name="frame.time_relative" showname="Time since reference or first frame: 1.034277000 seconds" size="0" pos="0" show="1.034277000"/>
    <field name="frame.number" showname="Frame Number: 17" size="0" pos="0" show="17"/>
    <field name="frame.len" showname="Frame Length: 206 bytes (1648 bits)" size="0" pos="0" show="206"/>
    <field name="frame.cap_len" showname="Capture Length: 206 bytes (1648 bits)" size="0" pos="0" show="206"/>
    <field name="frame.marked" showname="Frame is marked: False" size="0" pos="0" show="0"/>
    <field name="frame.ignored" showname="Frame is ignored: False" size="0" pos="0" show="0"/>
    <field name="frame.protocols" showname="Protocols in frame: null:ip:udp:nbdgm:smb:browser" size="0" pos="0" show="null:ip:udp:nbdgm:smb:browser"/>
  </proto>
  <proto name="null" showname="Null/Loopback" size="4" pos="0">
    <field name="null.family" showname="Family: IP (2)" size="4" pos="0" show="2" value="02000000"/>
  </proto>
  <proto name="ip" showname="Internet Protocol, Src: 192.168.4.224 (192.168.4.224), Dst: 192.168.4.255 (192.168.4.255)" size="20" pos="4">
    <field name="ip.version" showname="Version: 4" size="1" pos="4" show="4" value="45"/>
    <field name="ip.hdr_len" showname="Header length: 20 bytes" size="1" pos="4" show="20" value="45"/>
    <field name="ip.dsfield" showname="Differentiated Services Field: 0x00 (DSCP 0x00: Default; ECN: 0x00)" size="1" pos="5" show="0" value="00">
      <field name="ip.dsfield.dscp" showname="0000 00.. = Differentiated Services Codepoint: Default (0x00)" size="1" pos="5" show="0x00" value="0" unmaskedvalue="00"/>
      <field name="ip.dsfield.ect" showname=".... ..0. = ECN-Capable Transport (ECT): 0" size="1" pos="5" show="0" value="0" unmaskedvalue="00"/>
      <field name="ip.dsfield.ce" showname=".... ...0 = ECN-CE: 0" size="1" pos="5" show="0" value="0" unmaskedvalue="00"/>
    </field>
    <field name="ip.len" showname="Total Length: 202" size="2" pos="6" show="202" value="00ca"/>
    <field name="ip.id" showname="Identification: 0xbfb3 (49075)" size="2" pos="8" show="0xbfb3" value="bfb3"/>
    <field name="ip.flags" showname="Flags: 0x00" size="1" pos="10" show="0x00" value="00">
      <field name="ip.flags.rb" showname="0... .... = Reserved bit: Not set" size="1" pos="10" show="0" value="00"/>
      <field name="ip.flags.df" showname=".0.. .... = Don&apos;t fragment: Not set" size="1" pos="10" show="0" value="00"/>
      <field name="ip.flags.mf" showname="..0. .... = More fragments: Not set" size="1" pos="10" show="0" value="00"/>
    </field>
    <field name="ip.frag_offset" showname="Fragment offset: 0" size="2" pos="10" show="0" value="0000"/>
    <field name="ip.ttl" showname="Time to live: 64" size="1" pos="12" show="64" value="40"/>
    <field name="ip.proto" showname="Protocol: UDP (17)" size="1" pos="13" show="17" value="11"/>
    <field name="ip.checksum" showname="Header checksum: 0x2f40 [correct]" size="2" pos="14" show="0x2f40" value="2f40">
      <field name="ip.checksum_good" showname="Good: True" size="2" pos="14" show="1" value="2f40"/>
      <field name="ip.checksum_bad" showname="Bad: False" size="2" pos="14" show="0" value="2f40"/>
    </field>
    <field name="ip.src" showname="Source: 192.168.4.224 (192.168.4.224)" size="4" pos="16" show="192.168.4.224" value="c0a804e0"/>
    <field name="ip.addr" showname="Source or Destination Address: 192.168.4.224 (192.168.4.224)" hide="yes" size="4" pos="16" show="192.168.4.224" value="c0a804e0"/>
    <field name="ip.src_host" showname="Source Host: 192.168.4.224" hide="yes" size="4" pos="16" show="192.168.4.224" value="c0a804e0"/>
    <field name="ip.host" showname="Source or Destination Host: 192.168.4.224" hide="yes" size="4" pos="16" show="192.168.4.224" value="c0a804e0"/>
    <field name="ip.dst" showname="Destination: 192.168.4.255 (192.168.4.255)" size="4" pos="20" show="192.168.4.255" value="c0a804ff"/>
    <field name="ip.addr" showname="Source or Destination Address: 192.168.4.255 (192.168.4.255)" hide="yes" size="4" pos="20" show="192.168.4.255" value="c0a804ff"/>
    <field name="ip.dst_host" showname="Destination Host: 192.168.4.255" hide="yes" size="4" pos="20" show="192.168.4.255" value="c0a804ff"/>
    <field name="ip.host" showname="Source or Destination Host: 192.168.4.255" hide="yes" size="4" pos="20" show="192.168.4.255" value="c0a804ff"/>
  </proto>
  <proto name="udp" showname="User Datagram Protocol, Src Port: netbios-dgm (138), Dst Port: netbios-dgm (138)" size="8" pos="24">
    <field name="udp.srcport" showname="Source port: netbios-dgm (138)" size="2" pos="24" show="138" value="008a"/>
    <field name="udp.dstport" showname="Destination port: netbios-dgm (138)" size="2" pos="26" show="138" value="008a"/>
    <field name="udp.port" showname="Source or Destination Port: 138" hide="yes" size="2" pos="24" show="138" value="008a"/>
    <field name="udp.port" showname="Source or Destination Port: 138" hide="yes" size="2" pos="26" show="138" value="008a"/>
    <field name="udp.length" showname="Length: 182" size="2" pos="28" show="182" value="00b6"/>
    <field name="udp.checksum_coverage" showname="Checksum coverage: 182" hide="yes" size="0" pos="28" show="182"/>
    <field name="udp.checksum" showname="Checksum: 0xb8ba [validation disabled]" size="2" pos="30" show="0xb8ba" value="b8ba">
      <field name="udp.checksum_good" showname="Good Checksum: False" size="2" pos="30" show="0" value="b8ba"/>
      <field name="udp.checksum_bad" showname="Bad Checksum: False" size="2" pos="30" show="0" value="b8ba"/>
    </field>
  </proto>
  <proto name="nbdgm" showname="NetBIOS Datagram Service" size="82" pos="32">
    <field name="nbdgm.type" showname="Message Type: Direct_group datagram (17)" size="1" pos="32" show="17" value="11"/>
    <field name="nbdgm.next" showname="More fragments follow: No" size="1" pos="33" show="0" value="02"/>
    <field name="nbdgm.first" showname="This is first fragment: Yes" size="1" pos="33" show="1" value="02"/>
    <field name="nbdgm.node_type" showname="Node Type: B node (0)" size="1" pos="33" show="0" value="02"/>
    <field name="nbdgm.dgram_id" showname="Datagram ID: 0x5687" size="2" pos="34" show="0x5687" value="5687"/>
    <field name="nbdgm.src.ip" showname="Source IP: 192.168.4.224 (192.168.4.224)" size="4" pos="36" show="192.168.4.224" value="c0a804e0"/>
    <field name="nbdgm.src.port" showname="Source Port: 0" size="2" pos="40" show="0" value="0000"/>
    <field name="" show="Datagram length: 160 bytes" size="2" pos="42" value="00a0"/>
    <field name="" show="Packet offset: 0 bytes" size="2" pos="44" value="0000"/>
    <field name="" show="Source name: MACBOOKPRO-E139&lt;00&gt; (Workstation/Redirector)" size="34" pos="46" value="20454e45424544454345504550454c464146434550434e454644424444444a414100"/>
    <field name="" show="Destination name: WORKGROUP&lt;1d&gt; (Local Master Browser)" size="34" pos="80" value="20464845504643454c45484643455046464641434143414341434143414341424e00"/>
  </proto>
  <proto name="smb" showname="SMB (Server Message Block Protocol)" size="92" pos="114">
    <field name="" show="SMB Header" size="32" pos="114" value="ff534d42250000000000000000000000000000000000000000004e0000008656">
      <field name="" show="Server Component: SMB" size="4" pos="114" value="ff534d42"/>
      <field name="smb.cmd" showname="SMB Command: Trans (0x25)" size="1" pos="118" show="0x25" value="25"/>
      <field name="smb.error_class" showname="Error Class: Success (0x00)" size="1" pos="119" show="0x00" value="00"/>
      <field name="smb.reserved" showname="Reserved: 00" size="1" pos="120" show="00" value="00"/>
      <field name="smb.error_code" showname="Error Code: No Error" size="2" pos="121" show="0x0000" value="0000"/>
      <field name="" show="Flags: 0x00" size="1" pos="123" value="00">
        <field name="smb.flags.response" showname="0... .... = Request/Response: Message is a request to the server" size="1" pos="123" show="0" value="0" unmaskedvalue="00"/>
        <field name="smb.flags.notify" showname=".0.. .... = Notify: Notify client only on open" size="1" pos="123" show="0" value="0" unmaskedvalue="00"/>
        <field name="smb.flags.oplock" showname="..0. .... = Oplocks: OpLock not requested/granted" size="1" pos="123" show="0" value="0" unmaskedvalue="00"/>
        <field name="smb.flags.canon" showname="...0 .... = Canonicalized Pathnames: Pathnames are not canonicalized" size="1" pos="123" show="0" value="0" unmaskedvalue="00"/>
        <field name="smb.flags.caseless" showname=".... 0... = Case Sensitivity: Path names are case sensitive" size="1" pos="123" show="0" value="0" unmaskedvalue="00"/>
        <field name="smb.flags.receive_buffer" showname=".... ..0. = Receive Buffer Posted: Receive buffer has not been posted" size="1" pos="123" show="0" value="0" unmaskedvalue="00"/>
        <field name="smb.flags.lock" showname=".... ...0 = Lock and Read: Lock&amp;Read, Write&amp;Unlock are not supported" size="1" pos="123" show="0" value="0" unmaskedvalue="00"/>
      </field>
      <field name="" show="Flags2: 0x0000" size="2" pos="124" value="0000">
        <field name="smb.flags2.string" showname="0... .... .... .... = Unicode Strings: Strings are ASCII" size="2" pos="124" show="0" value="0" unmaskedvalue="0000"/>
        <field name="smb.flags2.nt_error" showname=".0.. .... .... .... = Error Code Type: Error codes are DOS error codes" size="2" pos="124" show="0" value="0" unmaskedvalue="0000"/>
        <field name="smb.flags2.roe" showname="..0. .... .... .... = Execute-only Reads: Don&apos;t permit reads if execute-only" size="2" pos="124" show="0" value="0" unmaskedvalue="0000"/>
        <field name="smb.flags2.dfs" showname="...0 .... .... .... = Dfs: Don&apos;t resolve pathnames with Dfs" size="2" pos="124" show="0" value="0" unmaskedvalue="0000"/>
        <field name="smb.flags2.esn" showname=".... 0... .... .... = Extended Security Negotiation: Extended security negotiation is not supported" size="2" pos="124" show="0" value="0" unmaskedvalue="0000"/>
        <field name="smb.flags2.long_names_used" showname=".... .... .0.. .... = Long Names Used: Path names in request are not long file names" size="2" pos="124" show="0" value="0" unmaskedvalue="0000"/>
        <field name="smb.flags2.sec_sig" showname=".... .... .... .0.. = Security Signatures: Security signatures are not supported" size="2" pos="124" show="0" value="0" unmaskedvalue="0000"/>
        <field name="smb.flags2.ea" showname=".... .... .... ..0. = Extended Attributes: Extended attributes are not supported" size="2" pos="124" show="0" value="0" unmaskedvalue="0000"/>
        <field name="smb.flags2.long_names_allowed" showname=".... .... .... ...0 = Long Names Allowed: Long file names are not allowed in the response" size="2" pos="124" show="0" value="0" unmaskedvalue="0000"/>
      </field>
      <field name="smb.pid.high" showname="Process ID High: 0" size="2" pos="126" show="0" value="0000"/>
      <field name="smb.signature" showname="Signature: 0000000000000000" size="8" pos="128" show="00:00:00:00:00:00:00:00" value="0000000000000000"/>
      <field name="smb.reserved" showname="Reserved: 0000" size="2" pos="136" show="00:00" value="0000"/>
      <field name="smb.tid" showname="Tree ID: 0" size="2" pos="138" show="0" value="0000"/>
      <field name="smb.pid" showname="Process ID: 78" size="2" pos="140" show="78" value="4e00"/>
      <field name="smb.uid" showname="User ID: 0" size="2" pos="142" show="0" value="0000"/>
      <field name="smb.mid" showname="Multiplex ID: 22150" size="2" pos="144" show="22150" value="8656"/>
    </field>
    <field name="" show="Trans Request (0x25)" size="60" pos="146" value="110000060000000000000002000000000000000000000006005600030001000100020017005c4d41494c534c4f545c42524f57534500090485560000">
      <field name="smb.wct" showname="Word Count (WCT): 17" size="1" pos="146" show="17" value="11"/>
      <field name="smb.tpc" showname="Total Parameter Count: 0" size="2" pos="147" show="0" value="0000"/>
      <field name="smb.tdc" showname="Total Data Count: 6" size="2" pos="149" show="6" value="0600"/>
      <field name="smb.mpc" showname="Max Parameter Count: 0" size="2" pos="151" show="0" value="0000"/>
      <field name="smb.mdc" showname="Max Data Count: 0" size="2" pos="153" show="0" value="0000"/>
      <field name="smb.msc" showname="Max Setup Count: 0" size="1" pos="155" show="0" value="00"/>
      <field name="smb.reserved" showname="Reserved: 00" size="1" pos="156" show="00" value="00"/>
      <field name="" show="Flags: 0x0002" size="2" pos="157" value="0200">
        <field name="smb.transaction.flags.owt" showname=".... .... .... ..1. = One Way Transaction: One Way Transaction (NO RESPONSE)" size="2" pos="157" show="1" value="1" unmaskedvalue="0200"/>
        <field name="smb.transaction.flags.dtid" showname=".... .... .... ...0 = Disconnect TID: Do NOT disconnect TID" size="2" pos="157" show="0" value="0" unmaskedvalue="0200"/>
      </field>
      <field name="smb.timeout" showname="Timeout: Return immediately (0)" size="4" pos="159" show="0" value="00000000"/>
      <field name="smb.reserved" showname="Reserved: 0000" size="2" pos="163" show="00:00" value="0000"/>
      <field name="smb.pc" showname="Parameter Count: 0" size="2" pos="165" show="0" value="0000"/>
      <field name="smb.po" showname="Parameter Offset: 0" size="2" pos="167" show="0" value="0000"/>
      <field name="smb.dc" showname="Data Count: 6" size="2" pos="169" show="6" value="0600"/>
      <field name="smb.data_offset" showname="Data Offset: 86" size="2" pos="171" show="86" value="5600"/>
      <field name="smb.sc" showname="Setup Count: 3" size="1" pos="173" show="3" value="03"/>
      <field name="smb.reserved" showname="Reserved: 00" size="1" pos="174" show="00" value="00"/>
      <field name="smb.bcc" showname="Byte Count (BCC): 23" size="2" pos="181" show="23" value="1700"/>
      <field name="smb.trans_name" showname="Transaction Name: \MAILSLOT\BROWSE" size="17" pos="183" show="\\MAILSLOT\\BROWSE" value="5c4d41494c534c4f545c42524f57534500"/>
    </field>
  </proto>
  <proto name="mailslot" showname="SMB MailSlot Protocol" size="25" pos="175">
    <field name="mailslot.opcode" showname="Opcode: Write Mail Slot (1)" size="2" pos="175" show="1" value="0100"/>
    <field name="mailslot.priority" showname="Priority: 1" size="2" pos="177" show="1" value="0100"/>
    <field name="mailslot.class" showname="Class: Unreliable &amp; Broadcast (2)" size="2" pos="179" show="2" value="0200"/>
    <field name="mailslot.size" showname="Size: 23" size="2" pos="181" show="23" value="1700"/>
    <field name="mailslot.name" showname="Mailslot Name: \MAILSLOT\BROWSE" size="17" pos="183" show="\\MAILSLOT\\BROWSE" value="5c4d41494c534c4f545c42524f57534500"/>
  </proto>
  <proto name="browser" showname="Microsoft Windows Browser Protocol" size="6" pos="200">
    <field name="browser.command" showname="Command: Get Backup List Request (0x09)" size="1" pos="200" show="0x09" value="09"/>
    <field name="browser.backup.count" showname="Backup List Requested Count: 4" size="1" pos="201" show="4" value="04"/>
    <field name="browser.backup.token" showname="Backup Request Token: 22149" size="4" pos="202" show="22149" value="85560000"/>
  </proto>
</packet>


<packet>
  <proto name="geninfo" pos="0" showname="General information" size="206">
    <field name="num" pos="0" show="18" showname="Number" value="12" size="206"/>
    <field name="len" pos="0" show="206" showname="Frame Length" value="ce" size="206"/>
    <field name="caplen" pos="0" show="206" showname="Captured Length" value="ce" size="206"/>
    <field name="timestamp" pos="0" show="Jan  7, 2013 15:57:37.307943000 PST" showname="Captured Time" value="1357603057.307943000" size="206"/>
  </proto>
  <proto name="frame" showname="Frame 18: 206 bytes on wire (1648 bits), 206 bytes captured (1648 bits)" size="206" pos="0">
    <field name="frame.time" showname="Arrival Time: Jan  7, 2013 15:57:37.307943000 PST" size="0" pos="0" show="Jan  7, 2013 15:57:37.307943000"/>
    <field name="frame.time_epoch" showname="Epoch Time: 1357603057.307943000 seconds" size="0" pos="0" show="1357603057.307943000"/>
    <field name="frame.time_delta" showname="Time delta from previous captured frame: 0.000081000 seconds" size="0" pos="0" show="0.000081000"/>
    <field name="frame.time_delta_displayed" showname="Time delta from previous displayed frame: 0.000081000 seconds" size="0" pos="0" show="0.000081000"/>
    <field name="frame.time_relative" showname="Time since reference or first frame: 1.034358000 seconds" size="0" pos="0" show="1.034358000"/>
    <field name="frame.number" showname="Frame Number: 18" size="0" pos="0" show="18"/>
    <field name="frame.len" showname="Frame Length: 206 bytes (1648 bits)" size="0" pos="0" show="206"/>
    <field name="frame.cap_len" showname="Capture Length: 206 bytes (1648 bits)" size="0" pos="0" show="206"/>
    <field name="frame.marked" showname="Frame is marked: False" size="0" pos="0" show="0"/>
    <field name="frame.ignored" showname="Frame is ignored: False" size="0" pos="0" show="0"/>
    <field name="frame.protocols" showname="Protocols in frame: null:ip:udp:nbdgm:smb:browser" size="0" pos="0" show="null:ip:udp:nbdgm:smb:browser"/>
  </proto>
  <proto name="null" showname="Null/Loopback" size="4" pos="0">
    <field name="null.family" showname="Family: IP (2)" size="4" pos="0" show="2" value="02000000"/>
  </proto>
  <proto name="ip" showname="Internet Protocol, Src: 192.168.4.223 (192.168.4.223), Dst: 192.168.4.255 (192.168.4.255)" size="20" pos="4">
    <field name="ip.version" showname="Version: 4" size="1" pos="4" show="4" value="45"/>
    <field name="ip.hdr_len" showname="Header length: 20 bytes" size="1" pos="4" show="20" value="45"/>
    <field name="ip.dsfield" showname="Differentiated Services Field: 0x00 (DSCP 0x00: Default; ECN: 0x00)" size="1" pos="5" show="0" value="00">
      <field name="ip.dsfield.dscp" showname="0000 00.. = Differentiated Services Codepoint: Default (0x00)" size="1" pos="5" show="0x00" value="0" unmaskedvalue="00"/>
      <field name="ip.dsfield.ect" showname=".... ..0. = ECN-Capable Transport (ECT): 0" size="1" pos="5" show="0" value="0" unmaskedvalue="00"/>
      <field name="ip.dsfield.ce" showname=".... ...0 = ECN-CE: 0" size="1" pos="5" show="0" value="0" unmaskedvalue="00"/>
    </field>
    <field name="ip.len" showname="Total Length: 202" size="2" pos="6" show="202" value="00ca"/>
    <field name="ip.id" showname="Identification: 0x6386 (25478)" size="2" pos="8" show="0x6386" value="6386"/>
    <field name="ip.flags" showname="Flags: 0x00" size="1" pos="10" show="0x00" value="00">
      <field name="ip.flags.rb" showname="0... .... = Reserved bit: Not set" size="1" pos="10" show="0" value="00"/>
      <field name="ip.flags.df" showname=".0.. .... = Don&apos;t fragment: Not set" size="1" pos="10" show="0" value="00"/>
      <field name="ip.flags.mf" showname="..0. .... = More fragments: Not set" size="1" pos="10" show="0" value="00"/>
    </field>
    <field name="ip.frag_offset" showname="Fragment offset: 0" size="2" pos="10" show="0" value="0000"/>
    <field name="ip.ttl" showname="Time to live: 64" size="1" pos="12" show="64" value="40"/>
    <field name="ip.proto" showname="Protocol: UDP (17)" size="1" pos="13" show="17" value="11"/>
    <field name="ip.checksum" showname="Header checksum: 0x0000 [incorrect, should be 0x8b6e]" size="2" pos="14" show="0x0000" value="0000">
      <field name="ip.checksum_good" showname="Good: False" size="2" pos="14" show="0" value="0000"/>
      <field name="ip.checksum_bad" showname="Bad: True" size="2" pos="14" show="1" value="0000">
        <proto name="expert" showname="Expert Info (Error/Checksum): Bad checksum" size="0" pos="0">
          <field name="expert.message" showname="Message: Bad checksum" size="0" pos="0" show="Bad checksum"/>
          <field name="expert.severity" showname="Severity level: Error" size="0" pos="0" show="Error"/>
          <field name="expert.group" showname="Group: Checksum" size="0" pos="0" show="Checksum"/>
        </proto>
      </field>
    </field>
    <field name="ip.src" showname="Source: 192.168.4.223 (192.168.4.223)" size="4" pos="16" show="192.168.4.223" value="c0a804df"/>
    <field name="ip.addr" showname="Source or Destination Address: 192.168.4.223 (192.168.4.223)" hide="yes" size="4" pos="16" show="192.168.4.223" value="c0a804df"/>
    <field name="ip.src_host" showname="Source Host: 192.168.4.223" hide="yes" size="4" pos="16" show="192.168.4.223" value="c0a804df"/>
    <field name="ip.host" showname="Source or Destination Host: 192.168.4.223" hide="yes" size="4" pos="16" show="192.168.4.223" value="c0a804df"/>
    <field name="ip.dst" showname="Destination: 192.168.4.255 (192.168.4.255)" size="4" pos="20" show="192.168.4.255" value="c0a804ff"/>
    <field name="ip.addr" showname="Source or Destination Address: 192.168.4.255 (192.168.4.255)" hide="yes" size="4" pos="20" show="192.168.4.255" value="c0a804ff"/>
    <field name="ip.dst_host" showname="Destination Host: 192.168.4.255" hide="yes" size="4" pos="20" show="192.168.4.255" value="c0a804ff"/>
    <field name="ip.host" showname="Source or Destination Host: 192.168.4.255" hide="yes" size="4" pos="20" show="192.168.4.255" value="c0a804ff"/>
  </proto>
  <proto name="udp" showname="User Datagram Protocol, Src Port: netbios-dgm (138), Dst Port: netbios-dgm (138)" size="8" pos="24">
    <field name="udp.srcport" showname="Source port: netbios-dgm (138)" size="2" pos="24" show="138" value="008a"/>
    <field name="udp.dstport" showname="Destination port: netbios-dgm (138)" size="2" pos="26" show="138" value="008a"/>
    <field name="udp.port" showname="Source or Destination Port: 138" hide="yes" size="2" pos="24" show="138" value="008a"/>
    <field name="udp.port" showname="Source or Destination Port: 138" hide="yes" size="2" pos="26" show="138" value="008a"/>
    <field name="udp.length" showname="Length: 182" size="2" pos="28" show="182" value="00b6"/>
    <field name="udp.checksum_coverage" showname="Checksum coverage: 182" hide="yes" size="0" pos="28" show="182"/>
    <field name="udp.checksum" showname="Checksum: 0x8bf6 [validation disabled]" size="2" pos="30" show="0x8bf6" value="8bf6">
      <field name="udp.checksum_good" showname="Good Checksum: False" size="2" pos="30" show="0" value="8bf6"/>
      <field name="udp.checksum_bad" showname="Bad Checksum: False" size="2" pos="30" show="0" value="8bf6"/>
    </field>
  </proto>
  <proto name="nbdgm" showname="NetBIOS Datagram Service" size="82" pos="32">
    <field name="nbdgm.type" showname="Message Type: Direct_group datagram (17)" size="1" pos="32" show="17" value="11"/>
    <field name="nbdgm.next" showname="More fragments follow: No" size="1" pos="33" show="0" value="02"/>
    <field name="nbdgm.first" showname="This is first fragment: Yes" size="1" pos="33" show="1" value="02"/>
    <field name="nbdgm.node_type" showname="Node Type: B node (0)" size="1" pos="33" show="0" value="02"/>
    <field name="nbdgm.dgram_id" showname="Datagram ID: 0x568a" size="2" pos="34" show="0x568a" value="568a"/>
    <field name="nbdgm.src.ip" showname="Source IP: 192.168.4.223 (192.168.4.223)" size="4" pos="36" show="192.168.4.223" value="c0a804df"/>
    <field name="nbdgm.src.port" showname="Source Port: 0" size="2" pos="40" show="0" value="0000"/>
    <field name="" show="Datagram length: 160 bytes" size="2" pos="42" value="00a0"/>
    <field name="" show="Packet offset: 0 bytes" size="2" pos="44" value="0000"/>
    <field name="" show="Source name: MACBOOKPRO-E139&lt;00&gt; (Workstation/Redirector)" size="34" pos="46" value="20454e45424544454345504550454c464146434550434e454644424444444a414100"/>
    <field name="" show="Destination name: HOME&lt;1d&gt; (Local Master Browser)" size="34" pos="80" value="2045494550454e454643414341434143414341434143414341434143414341424e00"/>
  </proto>
  <proto name="smb" showname="SMB (Server Message Block Protocol)" size="92" pos="114">
    <field name="" show="SMB Header" size="32" pos="114" value="ff534d42250000000000000000000000000000000000000000004e0000008956">
      <field name="" show="Server Component: SMB" size="4" pos="114" value="ff534d42"/>
      <field name="smb.cmd" showname="SMB Command: Trans (0x25)" size="1" pos="118" show="0x25" value="25"/>
      <field name="smb.error_class" showname="Error Class: Success (0x00)" size="1" pos="119" show="0x00" value="00"/>
      <field name="smb.reserved" showname="Reserved: 00" size="1" pos="120" show="00" value="00"/>
      <field name="smb.error_code" showname="Error Code: No Error" size="2" pos="121" show="0x0000" value="0000"/>
      <field name="" show="Flags: 0x00" size="1" pos="123" value="00">
        <field name="smb.flags.response" showname="0... .... = Request/Response: Message is a request to the server" size="1" pos="123" show="0" value="0" unmaskedvalue="00"/>
        <field name="smb.flags.notify" showname=".0.. .... = Notify: Notify client only on open" size="1" pos="123" show="0" value="0" unmaskedvalue="00"/>
        <field name="smb.flags.oplock" showname="..0. .... = Oplocks: OpLock not requested/granted" size="1" pos="123" show="0" value="0" unmaskedvalue="00"/>
        <field name="smb.flags.canon" showname="...0 .... = Canonicalized Pathnames: Pathnames are not canonicalized" size="1" pos="123" show="0" value="0" unmaskedvalue="00"/>
        <field name="smb.flags.caseless" showname=".... 0... = Case Sensitivity: Path names are case sensitive" size="1" pos="123" show="0" value="0" unmaskedvalue="00"/>
        <field name="smb.flags.receive_buffer" showname=".... ..0. = Receive Buffer Posted: Receive buffer has not been posted" size="1" pos="123" show="0" value="0" unmaskedvalue="00"/>
        <field name="smb.flags.lock" showname=".... ...0 = Lock and Read: Lock&amp;Read, Write&amp;Unlock are not supported" size="1" pos="123" show="0" value="0" unmaskedvalue="00"/>
      </field>
      <field name="" show="Flags2: 0x0000" size="2" pos="124" value="0000">
        <field name="smb.flags2.string" showname="0... .... .... .... = Unicode Strings: Strings are ASCII" size="2" pos="124" show="0" value="0" unmaskedvalue="0000"/>
        <field name="smb.flags2.nt_error" showname=".0.. .... .... .... = Error Code Type: Error codes are DOS error codes" size="2" pos="124" show="0" value="0" unmaskedvalue="0000"/>
        <field name="smb.flags2.roe" showname="..0. .... .... .... = Execute-only Reads: Don&apos;t permit reads if execute-only" size="2" pos="124" show="0" value="0" unmaskedvalue="0000"/>
        <field name="smb.flags2.dfs" showname="...0 .... .... .... = Dfs: Don&apos;t resolve pathnames with Dfs" size="2" pos="124" show="0" value="0" unmaskedvalue="0000"/>
        <field name="smb.flags2.esn" showname=".... 0... .... .... = Extended Security Negotiation: Extended security negotiation is not supported" size="2" pos="124" show="0" value="0" unmaskedvalue="0000"/>
        <field name="smb.flags2.long_names_used" showname=".... .... .0.. .... = Long Names Used: Path names in request are not long file names" size="2" pos="124" show="0" value="0" unmaskedvalue="0000"/>
        <field name="smb.flags2.sec_sig" showname=".... .... .... .0.. = Security Signatures: Security signatures are not supported" size="2" pos="124" show="0" value="0" unmaskedvalue="0000"/>
        <field name="smb.flags2.ea" showname=".... .... .... ..0. = Extended Attributes: Extended attributes are not supported" size="2" pos="124" show="0" value="0" unmaskedvalue="0000"/>
        <field name="smb.flags2.long_names_allowed" showname=".... .... .... ...0 = Long Names Allowed: Long file names are not allowed in the response" size="2" pos="124" show="0" value="0" unmaskedvalue="0000"/>
      </field>
      <field name="smb.pid.high" showname="Process ID High: 0" size="2" pos="126" show="0" value="0000"/>
      <field name="smb.signature" showname="Signature: 0000000000000000" size="8" pos="128" show="00:00:00:00:00:00:00:00" value="0000000000000000"/>
      <field name="smb.reserved" showname="Reserved: 0000" size="2" pos="136" show="00:00" value="0000"/>
      <field name="smb.tid" showname="Tree ID: 0" size="2" pos="138" show="0" value="0000"/>
      <field name="smb.pid" showname="Process ID: 78" size="2" pos="140" show="78" value="4e00"/>
      <field name="smb.uid" showname="User ID: 0" size="2" pos="142" show="0" value="0000"/>
      <field name="smb.mid" showname="Multiplex ID: 22153" size="2" pos="144" show="22153" value="8956"/>
    </field>
    <field name="" show="Trans Request (0x25)" size="60" pos="146" value="110000060000000000000002000000000000000000000006005600030001000100020017005c4d41494c534c4f545c42524f57534500090488560000">
      <field name="smb.wct" showname="Word Count (WCT): 17" size="1" pos="146" show="17" value="11"/>
      <field name="smb.tpc" showname="Total Parameter Count: 0" size="2" pos="147" show="0" value="0000"/>
      <field name="smb.tdc" showname="Total Data Count: 6" size="2" pos="149" show="6" value="0600"/>
      <field name="smb.mpc" showname="Max Parameter Count: 0" size="2" pos="151" show="0" value="0000"/>
      <field name="smb.mdc" showname="Max Data Count: 0" size="2" pos="153" show="0" value="0000"/>
      <field name="smb.msc" showname="Max Setup Count: 0" size="1" pos="155" show="0" value="00"/>
      <field name="smb.reserved" showname="Reserved: 00" size="1" pos="156" show="00" value="00"/>
      <field name="" show="Flags: 0x0002" size="2" pos="157" value="0200">
        <field name="smb.transaction.flags.owt" showname=".... .... .... ..1. = One Way Transaction: One Way Transaction (NO RESPONSE)" size="2" pos="157" show="1" value="1" unmaskedvalue="0200"/>
        <field name="smb.transaction.flags.dtid" showname=".... .... .... ...0 = Disconnect TID: Do NOT disconnect TID" size="2" pos="157" show="0" value="0" unmaskedvalue="0200"/>
      </field>
      <field name="smb.timeout" showname="Timeout: Return immediately (0)" size="4" pos="159" show="0" value="00000000"/>
      <field name="smb.reserved" showname="Reserved: 0000" size="2" pos="163" show="00:00" value="0000"/>
      <field name="smb.pc" showname="Parameter Count: 0" size="2" pos="165" show="0" value="0000"/>
      <field name="smb.po" showname="Parameter Offset: 0" size="2" pos="167" show="0" value="0000"/>
      <field name="smb.dc" showname="Data Count: 6" size="2" pos="169" show="6" value="0600"/>
      <field name="smb.data_offset" showname="Data Offset: 86" size="2" pos="171" show="86" value="5600"/>
      <field name="smb.sc" showname="Setup Count: 3" size="1" pos="173" show="3" value="03"/>
      <field name="smb.reserved" showname="Reserved: 00" size="1" pos="174" show="00" value="00"/>
      <field name="smb.bcc" showname="Byte Count (BCC): 23" size="2" pos="181" show="23" value="1700"/>
      <field name="smb.trans_name" showname="Transaction Name: \MAILSLOT\BROWSE" size="17" pos="183" show="\\MAILSLOT\\BROWSE" value="5c4d41494c534c4f545c42524f57534500"/>
    </field>
  </proto>
  <proto name="mailslot" showname="SMB MailSlot Protocol" size="25" pos="175">
    <field name="mailslot.opcode" showname="Opcode: Write Mail Slot (1)" size="2" pos="175" show="1" value="0100"/>
    <field name="mailslot.priority" showname="Priority: 1" size="2" pos="177" show="1" value="0100"/>
    <field name="mailslot.class" showname="Class: Unreliable &amp; Broadcast (2)" size="2" pos="179" show="2" value="0200"/>
    <field name="mailslot.size" showname="Size: 23" size="2" pos="181" show="23" value="1700"/>
    <field name="mailslot.name" showname="Mailslot Name: \MAILSLOT\BROWSE" size="17" pos="183" show="\\MAILSLOT\\BROWSE" value="5c4d41494c534c4f545c42524f57534500"/>
  </proto>
  <proto name="browser" showname="Microsoft Windows Browser Protocol" size="6" pos="200">
    <field name="browser.command" showname="Command: Get Backup List Request (0x09)" size="1" pos="200" show="0x09" value="09"/>
    <field name="browser.backup.count" showname="Backup List Requested Count: 4" size="1" pos="201" show="4" value="04"/>
    <field name="browser.backup.token" showname="Backup Request Token: 22152" size="4" pos="202" show="22152" value="88560000"/>
  </proto>
</packet>


<packet>
  <proto name="geninfo" pos="0" showname="General information" size="206">
    <field name="num" pos="0" show="19" showname="Number" value="13" size="206"/>
    <field name="len" pos="0" show="206" showname="Frame Length" value="ce" size="206"/>
    <field name="caplen" pos="0" show="206" showname="Captured Length" value="ce" size="206"/>
    <field name="timestamp" pos="0" show="Jan  7, 2013 15:57:37.307971000 PST" showname="Captured Time" value="1357603057.307971000" size="206"/>
  </proto>
  <proto name="frame" showname="Frame 19: 206 bytes on wire (1648 bits), 206 bytes captured (1648 bits)" size="206" pos="0">
    <field name="frame.time" showname="Arrival Time: Jan  7, 2013 15:57:37.307971000 PST" size="0" pos="0" show="Jan  7, 2013 15:57:37.307971000"/>
    <field name="frame.time_epoch" showname="Epoch Time: 1357603057.307971000 seconds" size="0" pos="0" show="1357603057.307971000"/>
    <field name="frame.time_delta" showname="Time delta from previous captured frame: 0.000028000 seconds" size="0" pos="0" show="0.000028000"/>
    <field name="frame.time_delta_displayed" showname="Time delta from previous displayed frame: 0.000028000 seconds" size="0" pos="0" show="0.000028000"/>
    <field name="frame.time_relative" showname="Time since reference or first frame: 1.034386000 seconds" size="0" pos="0" show="1.034386000"/>
    <field name="frame.number" showname="Frame Number: 19" size="0" pos="0" show="19"/>
    <field name="frame.len" showname="Frame Length: 206 bytes (1648 bits)" size="0" pos="0" show="206"/>
    <field name="frame.cap_len" showname="Capture Length: 206 bytes (1648 bits)" size="0" pos="0" show="206"/>
    <field name="frame.marked" showname="Frame is marked: False" size="0" pos="0" show="0"/>
    <field name="frame.ignored" showname="Frame is ignored: False" size="0" pos="0" show="0"/>
    <field name="frame.protocols" showname="Protocols in frame: null:ip:udp:nbdgm:smb:browser" size="0" pos="0" show="null:ip:udp:nbdgm:smb:browser"/>
  </proto>
  <proto name="null" showname="Null/Loopback" size="4" pos="0">
    <field name="null.family" showname="Family: IP (2)" size="4" pos="0" show="2" value="02000000"/>
  </proto>
  <proto name="ip" showname="Internet Protocol, Src: 192.168.4.224 (192.168.4.224), Dst: 192.168.4.255 (192.168.4.255)" size="20" pos="4">
    <field name="ip.version" showname="Version: 4" size="1" pos="4" show="4" value="45"/>
    <field name="ip.hdr_len" showname="Header length: 20 bytes" size="1" pos="4" show="20" value="45"/>
    <field name="ip.dsfield" showname="Differentiated Services Field: 0x00 (DSCP 0x00: Default; ECN: 0x00)" size="1" pos="5" show="0" value="00">
      <field name="ip.dsfield.dscp" showname="0000 00.. = Differentiated Services Codepoint: Default (0x00)" size="1" pos="5" show="0x00" value="0" unmaskedvalue="00"/>
      <field name="ip.dsfield.ect" showname=".... ..0. = ECN-Capable Transport (ECT): 0" size="1" pos="5" show="0" value="0" unmaskedvalue="00"/>
      <field name="ip.dsfield.ce" showname=".... ...0 = ECN-CE: 0" size="1" pos="5" show="0" value="0" unmaskedvalue="00"/>
    </field>
    <field name="ip.len" showname="Total Length: 202" size="2" pos="6" show="202" value="00ca"/>
    <field name="ip.id" showname="Identification: 0x0fdc (4060)" size="2" pos="8" show="0x0fdc" value="0fdc"/>
    <field name="ip.flags" showname="Flags: 0x00" size="1" pos="10" show="0x00" value="00">
      <field name="ip.flags.rb" showname="0... .... = Reserved bit: Not set" size="1" pos="10" show="0" value="00"/>
      <field name="ip.flags.df" showname=".0.. .... = Don&apos;t fragment: Not set" size="1" pos="10" show="0" value="00"/>
      <field name="ip.flags.mf" showname="..0. .... = More fragments: Not set" size="1" pos="10" show="0" value="00"/>
    </field>
    <field name="ip.frag_offset" showname="Fragment offset: 0" size="2" pos="10" show="0" value="0000"/>
    <field name="ip.ttl" showname="Time to live: 64" size="1" pos="12" show="64" value="40"/>
    <field name="ip.proto" showname="Protocol: UDP (17)" size="1" pos="13" show="17" value="11"/>
    <field name="ip.checksum" showname="Header checksum: 0xdf17 [correct]" size="2" pos="14" show="0xdf17" value="df17">
      <field name="ip.checksum_good" showname="Good: True" size="2" pos="14" show="1" value="df17"/>
      <field name="ip.checksum_bad" showname="Bad: False" size="2" pos="14" show="0" value="df17"/>
    </field>
    <field name="ip.src" showname="Source: 192.168.4.224 (192.168.4.224)" size="4" pos="16" show="192.168.4.224" value="c0a804e0"/>
    <field name="ip.addr" showname="Source or Destination Address: 192.168.4.224 (192.168.4.224)" hide="yes" size="4" pos="16" show="192.168.4.224" value="c0a804e0"/>
    <field name="ip.src_host" showname="Source Host: 192.168.4.224" hide="yes" size="4" pos="16" show="192.168.4.224" value="c0a804e0"/>
    <field name="ip.host" showname="Source or Destination Host: 192.168.4.224" hide="yes" size="4" pos="16" show="192.168.4.224" value="c0a804e0"/>
    <field name="ip.dst" showname="Destination: 192.168.4.255 (192.168.4.255)" size="4" pos="20" show="192.168.4.255" value="c0a804ff"/>
    <field name="ip.addr" showname="Source or Destination Address: 192.168.4.255 (192.168.4.255)" hide="yes" size="4" pos="20" show="192.168.4.255" value="c0a804ff"/>
    <field name="ip.dst_host" showname="Destination Host: 192.168.4.255" hide="yes" size="4" pos="20" show="192.168.4.255" value="c0a804ff"/>
    <field name="ip.host" showname="Source or Destination Host: 192.168.4.255" hide="yes" size="4" pos="20" show="192.168.4.255" value="c0a804ff"/>
  </proto>
  <proto name="udp" showname="User Datagram Protocol, Src Port: netbios-dgm (138), Dst Port: netbios-dgm (138)" size="8" pos="24">
    <field name="udp.srcport" showname="Source port: netbios-dgm (138)" size="2" pos="24" show="138" value="008a"/>
    <field name="udp.dstport" showname="Destination port: netbios-dgm (138)" size="2" pos="26" show="138" value="008a"/>
    <field name="udp.port" showname="Source or Destination Port: 138" hide="yes" size="2" pos="24" show="138" value="008a"/>
    <field name="udp.port" showname="Source or Destination Port: 138" hide="yes" size="2" pos="26" show="138" value="008a"/>
    <field name="udp.length" showname="Length: 182" size="2" pos="28" show="182" value="00b6"/>
    <field name="udp.checksum_coverage" showname="Checksum coverage: 182" hide="yes" size="0" pos="28" show="182"/>
    <field name="udp.checksum" showname="Checksum: 0xc9c6 [validation disabled]" size="2" pos="30" show="0xc9c6" value="c9c6">
      <field name="udp.checksum_good" showname="Good Checksum: False" size="2" pos="30" show="0" value="c9c6"/>
      <field name="udp.checksum_bad" showname="Bad Checksum: False" size="2" pos="30" show="0" value="c9c6"/>
    </field>
  </proto>
  <proto name="nbdgm" showname="NetBIOS Datagram Service" size="82" pos="32">
    <field name="nbdgm.type" showname="Message Type: Direct_group datagram (17)" size="1" pos="32" show="17" value="11"/>
    <field name="nbdgm.next" showname="More fragments follow: No" size="1" pos="33" show="0" value="02"/>
    <field name="nbdgm.first" showname="This is first fragment: Yes" size="1" pos="33" show="1" value="02"/>
    <field name="nbdgm.node_type" showname="Node Type: B node (0)" size="1" pos="33" show="0" value="02"/>
    <field name="nbdgm.dgram_id" showname="Datagram ID: 0x568a" size="2" pos="34" show="0x568a" value="568a"/>
    <field name="nbdgm.src.ip" showname="Source IP: 192.168.4.224 (192.168.4.224)" size="4" pos="36" show="192.168.4.224" value="c0a804e0"/>
    <field name="nbdgm.src.port" showname="Source Port: 0" size="2" pos="40" show="0" value="0000"/>
    <field name="" show="Datagram length: 160 bytes" size="2" pos="42" value="00a0"/>
    <field name="" show="Packet offset: 0 bytes" size="2" pos="44" value="0000"/>
    <field name="" show="Source name: MACBOOKPRO-E139&lt;00&gt; (Workstation/Redirector)" size="34" pos="46" value="20454e45424544454345504550454c464146434550434e454644424444444a414100"/>
    <field name="" show="Destination name: HOME&lt;1d&gt; (Local Master Browser)" size="34" pos="80" value="2045494550454e454643414341434143414341434143414341434143414341424e00"/>
  </proto>
  <proto name="smb" showname="SMB (Server Message Block Protocol)" size="92" pos="114">
    <field name="" show="SMB Header" size="32" pos="114" value="ff534d42250000000000000000000000000000000000000000004e0000008956">
      <field name="" show="Server Component: SMB" size="4" pos="114" value="ff534d42"/>
      <field name="smb.cmd" showname="SMB Command: Trans (0x25)" size="1" pos="118" show="0x25" value="25"/>
      <field name="smb.error_class" showname="Error Class: Success (0x00)" size="1" pos="119" show="0x00" value="00"/>
      <field name="smb.reserved" showname="Reserved: 00" size="1" pos="120" show="00" value="00"/>
      <field name="smb.error_code" showname="Error Code: No Error" size="2" pos="121" show="0x0000" value="0000"/>
      <field name="" show="Flags: 0x00" size="1" pos="123" value="00">
        <field name="smb.flags.response" showname="0... .... = Request/Response: Message is a request to the server" size="1" pos="123" show="0" value="0" unmaskedvalue="00"/>
        <field name="smb.flags.notify" showname=".0.. .... = Notify: Notify client only on open" size="1" pos="123" show="0" value="0" unmaskedvalue="00"/>
        <field name="smb.flags.oplock" showname="..0. .... = Oplocks: OpLock not requested/granted" size="1" pos="123" show="0" value="0" unmaskedvalue="00"/>
        <field name="smb.flags.canon" showname="...0 .... = Canonicalized Pathnames: Pathnames are not canonicalized" size="1" pos="123" show="0" value="0" unmaskedvalue="00"/>
        <field name="smb.flags.caseless" showname=".... 0... = Case Sensitivity: Path names are case sensitive" size="1" pos="123" show="0" value="0" unmaskedvalue="00"/>
        <field name="smb.flags.receive_buffer" showname=".... ..0. = Receive Buffer Posted: Receive buffer has not been posted" size="1" pos="123" show="0" value="0" unmaskedvalue="00"/>
        <field name="smb.flags.lock" showname=".... ...0 = Lock and Read: Lock&amp;Read, Write&amp;Unlock are not supported" size="1" pos="123" show="0" value="0" unmaskedvalue="00"/>
      </field>
      <field name="" show="Flags2: 0x0000" size="2" pos="124" value="0000">
        <field name="smb.flags2.string" showname="0... .... .... .... = Unicode Strings: Strings are ASCII" size="2" pos="124" show="0" value="0" unmaskedvalue="0000"/>
        <field name="smb.flags2.nt_error" showname=".0.. .... .... .... = Error Code Type: Error codes are DOS error codes" size="2" pos="124" show="0" value="0" unmaskedvalue="0000"/>
        <field name="smb.flags2.roe" showname="..0. .... .... .... = Execute-only Reads: Don&apos;t permit reads if execute-only" size="2" pos="124" show="0" value="0" unmaskedvalue="0000"/>
        <field name="smb.flags2.dfs" showname="...0 .... .... .... = Dfs: Don&apos;t resolve pathnames with Dfs" size="2" pos="124" show="0" value="0" unmaskedvalue="0000"/>
        <field name="smb.flags2.esn" showname=".... 0... .... .... = Extended Security Negotiation: Extended security negotiation is not supported" size="2" pos="124" show="0" value="0" unmaskedvalue="0000"/>
        <field name="smb.flags2.long_names_used" showname=".... .... .0.. .... = Long Names Used: Path names in request are not long file names" size="2" pos="124" show="0" value="0" unmaskedvalue="0000"/>
        <field name="smb.flags2.sec_sig" showname=".... .... .... .0.. = Security Signatures: Security signatures are not supported" size="2" pos="124" show="0" value="0" unmaskedvalue="0000"/>
        <field name="smb.flags2.ea" showname=".... .... .... ..0. = Extended Attributes: Extended attributes are not supported" size="2" pos="124" show="0" value="0" unmaskedvalue="0000"/>
        <field name="smb.flags2.long_names_allowed" showname=".... .... .... ...0 = Long Names Allowed: Long file names are not allowed in the response" size="2" pos="124" show="0" value="0" unmaskedvalue="0000"/>
      </field>
      <field name="smb.pid.high" showname="Process ID High: 0" size="2" pos="126" show="0" value="0000"/>
      <field name="smb.signature" showname="Signature: 0000000000000000" size="8" pos="128" show="00:00:00:00:00:00:00:00" value="0000000000000000"/>
      <field name="smb.reserved" showname="Reserved: 0000" size="2" pos="136" show="00:00" value="0000"/>
      <field name="smb.tid" showname="Tree ID: 0" size="2" pos="138" show="0" value="0000"/>
      <field name="smb.pid" showname="Process ID: 78" size="2" pos="140" show="78" value="4e00"/>
      <field name="smb.uid" showname="User ID: 0" size="2" pos="142" show="0" value="0000"/>
      <field name="smb.mid" showname="Multiplex ID: 22153" size="2" pos="144" show="22153" value="8956"/>
    </field>
    <field name="" show="Trans Request (0x25)" size="60" pos="146" value="110000060000000000000002000000000000000000000006005600030001000100020017005c4d41494c534c4f545c42524f57534500090488560000">
      <field name="smb.wct" showname="Word Count (WCT): 17" size="1" pos="146" show="17" value="11"/>
      <field name="smb.tpc" showname="Total Parameter Count: 0" size="2" pos="147" show="0" value="0000"/>
      <field name="smb.tdc" showname="Total Data Count: 6" size="2" pos="149" show="6" value="0600"/>
      <field name="smb.mpc" showname="Max Parameter Count: 0" size="2" pos="151" show="0" value="0000"/>
      <field name="smb.mdc" showname="Max Data Count: 0" size="2" pos="153" show="0" value="0000"/>
      <field name="smb.msc" showname="Max Setup Count: 0" size="1" pos="155" show="0" value="00"/>
      <field name="smb.reserved" showname="Reserved: 00" size="1" pos="156" show="00" value="00"/>
      <field name="" show="Flags: 0x0002" size="2" pos="157" value="0200">
        <field name="smb.transaction.flags.owt" showname=".... .... .... ..1. = One Way Transaction: One Way Transaction (NO RESPONSE)" size="2" pos="157" show="1" value="1" unmaskedvalue="0200"/>
        <field name="smb.transaction.flags.dtid" showname=".... .... .... ...0 = Disconnect TID: Do NOT disconnect TID" size="2" pos="157" show="0" value="0" unmaskedvalue="0200"/>
      </field>
      <field name="smb.timeout" showname="Timeout: Return immediately (0)" size="4" pos="159" show="0" value="00000000"/>
      <field name="smb.reserved" showname="Reserved: 0000" size="2" pos="163" show="00:00" value="0000"/>
      <field name="smb.pc" showname="Parameter Count: 0" size="2" pos="165" show="0" value="0000"/>
      <field name="smb.po" showname="Parameter Offset: 0" size="2" pos="167" show="0" value="0000"/>
      <field name="smb.dc" showname="Data Count: 6" size="2" pos="169" show="6" value="0600"/>
      <field name="smb.data_offset" showname="Data Offset: 86" size="2" pos="171" show="86" value="5600"/>
      <field name="smb.sc" showname="Setup Count: 3" size="1" pos="173" show="3" value="03"/>
      <field name="smb.reserved" showname="Reserved: 00" size="1" pos="174" show="00" value="00"/>
      <field name="smb.bcc" showname="Byte Count (BCC): 23" size="2" pos="181" show="23" value="1700"/>
      <field name="smb.trans_name" showname="Transaction Name: \MAILSLOT\BROWSE" size="17" pos="183" show="\\MAILSLOT\\BROWSE" value="5c4d41494c534c4f545c42524f57534500"/>
    </field>
  </proto>
  <proto name="mailslot" showname="SMB MailSlot Protocol" size="25" pos="175">
    <field name="mailslot.opcode" showname="Opcode: Write Mail Slot (1)" size="2" pos="175" show="1" value="0100"/>
    <field name="mailslot.priority" showname="Priority: 1" size="2" pos="177" show="1" value="0100"/>
    <field name="mailslot.class" showname="Class: Unreliable &amp; Broadcast (2)" size="2" pos="179" show="2" value="0200"/>
    <field name="mailslot.size" showname="Size: 23" size="2" pos="181" show="23" value="1700"/>
    <field name="mailslot.name" showname="Mailslot Name: \MAILSLOT\BROWSE" size="17" pos="183" show="\\MAILSLOT\\BROWSE" value="5c4d41494c534c4f545c42524f57534500"/>
  </proto>
  <proto name="browser" showname="Microsoft Windows Browser Protocol" size="6" pos="200">
    <field name="browser.command" showname="Command: Get Backup List Request (0x09)" size="1" pos="200" show="0x09" value="09"/>
    <field name="browser.backup.count" showname="Backup List Requested Count: 4" size="1" pos="201" show="4" value="04"/>
    <field name="browser.backup.token" showname="Backup Request Token: 22152" size="4" pos="202" show="22152" value="88560000"/>
  </proto>
</packet>


<packet>
  <proto name="geninfo" pos="0" showname="General information" size="82">
    <field name="num" pos="0" show="20" showname="Number" value="14" size="82"/>
    <field name="len" pos="0" show="82" showname="Frame Length" value="52" size="82"/>
    <field name="caplen" pos="0" show="82" showname="Captured Length" value="52" size="82"/>
    <field name="timestamp" pos="0" show="Jan  7, 2013 15:57:37.520635000 PST" showname="Captured Time" value="1357603057.520635000" size="82"/>
  </proto>
  <proto name="frame" showname="Frame 20: 82 bytes on wire (656 bits), 82 bytes captured (656 bits)" size="82" pos="0">
    <field name="frame.time" showname="Arrival Time: Jan  7, 2013 15:57:37.520635000 PST" size="0" pos="0" show="Jan  7, 2013 15:57:37.520635000"/>
    <field name="frame.time_epoch" showname="Epoch Time: 1357603057.520635000 seconds" size="0" pos="0" show="1357603057.520635000"/>
    <field name="frame.time_delta" showname="Time delta from previous captured frame: 0.212664000 seconds" size="0" pos="0" show="0.212664000"/>
    <field name="frame.time_delta_displayed" showname="Time delta from previous displayed frame: 0.212664000 seconds" size="0" pos="0" show="0.212664000"/>
    <field name="frame.time_relative" showname="Time since reference or first frame: 1.247050000 seconds" size="0" pos="0" show="1.247050000"/>
    <field name="frame.number" showname="Frame Number: 20" size="0" pos="0" show="20"/>
    <field name="frame.len" showname="Frame Length: 82 bytes (656 bits)" size="0" pos="0" show="82"/>
    <field name="frame.cap_len" showname="Capture Length: 82 bytes (656 bits)" size="0" pos="0" show="82"/>
    <field name="frame.marked" showname="Frame is marked: False" size="0" pos="0" show="0"/>
    <field name="frame.ignored" showname="Frame is ignored: False" size="0" pos="0" show="0"/>
    <field name="frame.protocols" showname="Protocols in frame: null:ip:udp:nbns" size="0" pos="0" show="null:ip:udp:nbns"/>
  </proto>
  <proto name="null" showname="Null/Loopback" size="4" pos="0">
    <field name="null.family" showname="Family: IP (2)" size="4" pos="0" show="2" value="02000000"/>
  </proto>
  <proto name="ip" showname="Internet Protocol, Src: 192.168.4.223 (192.168.4.223), Dst: 192.168.4.255 (192.168.4.255)" size="20" pos="4">
    <field name="ip.version" showname="Version: 4" size="1" pos="4" show="4" value="45"/>
    <field name="ip.hdr_len" showname="Header length: 20 bytes" size="1" pos="4" show="20" value="45"/>
    <field name="ip.dsfield" showname="Differentiated Services Field: 0x00 (DSCP 0x00: Default; ECN: 0x00)" size="1" pos="5" show="0" value="00">
      <field name="ip.dsfield.dscp" showname="0000 00.. = Differentiated Services Codepoint: Default (0x00)" size="1" pos="5" show="0x00" value="0" unmaskedvalue="00"/>
      <field name="ip.dsfield.ect" showname=".... ..0. = ECN-Capable Transport (ECT): 0" size="1" pos="5" show="0" value="0" unmaskedvalue="00"/>
      <field name="ip.dsfield.ce" showname=".... ...0 = ECN-CE: 0" size="1" pos="5" show="0" value="0" unmaskedvalue="00"/>
    </field>
    <field name="ip.len" showname="Total Length: 78" size="2" pos="6" show="78" value="004e"/>
    <field name="ip.id" showname="Identification: 0x1fdd (8157)" size="2" pos="8" show="0x1fdd" value="1fdd"/>
    <field name="ip.flags" showname="Flags: 0x00" size="1" pos="10" show="0x00" value="00">
      <field name="ip.flags.rb" showname="0... .... = Reserved bit: Not set" size="1" pos="10" show="0" value="00"/>
      <field name="ip.flags.df" showname=".0.. .... = Don&apos;t fragment: Not set" size="1" pos="10" show="0" value="00"/>
      <field name="ip.flags.mf" showname="..0. .... = More fragments: Not set" size="1" pos="10" show="0" value="00"/>
    </field>
    <field name="ip.frag_offset" showname="Fragment offset: 0" size="2" pos="10" show="0" value="0000"/>
    <field name="ip.ttl" showname="Time to live: 64" size="1" pos="12" show="64" value="40"/>
    <field name="ip.proto" showname="Protocol: UDP (17)" size="1" pos="13" show="17" value="11"/>
    <field name="ip.checksum" showname="Header checksum: 0x0000 [incorrect, should be 0xcf93]" size="2" pos="14" show="0x0000" value="0000">
      <field name="ip.checksum_good" showname="Good: False" size="2" pos="14" show="0" value="0000"/>
      <field name="ip.checksum_bad" showname="Bad: True" size="2" pos="14" show="1" value="0000">
        <proto name="expert" showname="Expert Info (Error/Checksum): Bad checksum" size="0" pos="0">
          <field name="expert.message" showname="Message: Bad checksum" size="0" pos="0" show="Bad checksum"/>
          <field name="expert.severity" showname="Severity level: Error" size="0" pos="0" show="Error"/>
          <field name="expert.group" showname="Group: Checksum" size="0" pos="0" show="Checksum"/>
        </proto>
      </field>
    </field>
    <field name="ip.src" showname="Source: 192.168.4.223 (192.168.4.223)" size="4" pos="16" show="192.168.4.223" value="c0a804df"/>
    <field name="ip.addr" showname="Source or Destination Address: 192.168.4.223 (192.168.4.223)" hide="yes" size="4" pos="16" show="192.168.4.223" value="c0a804df"/>
    <field name="ip.src_host" showname="Source Host: 192.168.4.223" hide="yes" size="4" pos="16" show="192.168.4.223" value="c0a804df"/>
    <field name="ip.host" showname="Source or Destination Host: 192.168.4.223" hide="yes" size="4" pos="16" show="192.168.4.223" value="c0a804df"/>
    <field name="ip.dst" showname="Destination: 192.168.4.255 (192.168.4.255)" size="4" pos="20" show="192.168.4.255" value="c0a804ff"/>
    <field name="ip.addr" showname="Source or Destination Address: 192.168.4.255 (192.168.4.255)" hide="yes" size="4" pos="20" show="192.168.4.255" value="c0a804ff"/>
    <field name="ip.dst_host" showname="Destination Host: 192.168.4.255" hide="yes" size="4" pos="20" show="192.168.4.255" value="c0a804ff"/>
    <field name="ip.host" showname="Source or Destination Host: 192.168.4.255" hide="yes" size="4" pos="20" show="192.168.4.255" value="c0a804ff"/>
  </proto>
  <proto name="udp" showname="User Datagram Protocol, Src Port: netbios-ns (137), Dst Port: netbios-ns (137)" size="8" pos="24">
    <field name="udp.srcport" showname="Source port: netbios-ns (137)" size="2" pos="24" show="137" value="0089"/>
    <field name="udp.dstport" showname="Destination port: netbios-ns (137)" size="2" pos="26" show="137" value="0089"/>
    <field name="udp.port" showname="Source or Destination Port: 137" hide="yes" size="2" pos="24" show="137" value="0089"/>
    <field name="udp.port" showname="Source or Destination Port: 137" hide="yes" size="2" pos="26" show="137" value="0089"/>
    <field name="udp.length" showname="Length: 58" size="2" pos="28" show="58" value="003a"/>
    <field name="udp.checksum_coverage" showname="Checksum coverage: 58" hide="yes" size="0" pos="28" show="58"/>
    <field name="udp.checksum" showname="Checksum: 0x8b7a [validation disabled]" size="2" pos="30" show="0x8b7a" value="8b7a">
      <field name="udp.checksum_good" showname="Good Checksum: False" size="2" pos="30" show="0" value="8b7a"/>
      <field name="udp.checksum_bad" showname="Bad Checksum: False" size="2" pos="30" show="0" value="8b7a"/>
    </field>
  </proto>
  <proto name="nbns" showname="NetBIOS Name Service" size="50" pos="32">
    <field name="nbns.id" showname="Transaction ID: 0x5684" size="2" pos="32" show="0x5684" value="5684"/>
    <field name="nbns.flags" showname="Flags: 0x0110 (Name query)" size="2" pos="34" show="0x0110" value="0110">
      <field name="nbns.flags.response" showname="0... .... .... .... = Response: Message is a query" size="2" pos="34" show="0" value="0" unmaskedvalue="0110"/>
      <field name="nbns.flags.opcode" showname=".000 0... .... .... = Opcode: Name query (0)" size="2" pos="34" show="0" value="0" unmaskedvalue="0110"/>
      <field name="nbns.flags.truncated" showname=".... ..0. .... .... = Truncated: Message is not truncated" size="2" pos="34" show="0" value="0" unmaskedvalue="0110"/>
      <field name="nbns.flags.recdesired" showname=".... ...1 .... .... = Recursion desired: Do query recursively" size="2" pos="34" show="1" value="1" unmaskedvalue="0110"/>
      <field name="nbns.flags.broadcast" showname=".... .... ...1 .... = Broadcast: Broadcast packet" size="2" pos="34" show="1" value="1" unmaskedvalue="0110"/>
    </field>
    <field name="nbns.count.queries" showname="Questions: 1" size="2" pos="36" show="1" value="0001"/>
    <field name="nbns.count.answers" showname="Answer RRs: 0" size="2" pos="38" show="0" value="0000"/>
    <field name="nbns.count.auth_rr" showname="Authority RRs: 0" size="2" pos="40" show="0" value="0000"/>
    <field name="nbns.count.add_rr" showname="Additional RRs: 0" size="2" pos="42" show="0" value="0000"/>
    <field name="" show="Queries" size="38" pos="44" value="204142414346504650454e464445434643455046484644454646504650414341420000200001">
      <field name="" show="&lt;01&gt;&lt;02&gt;__MSBROWSE__&lt;02&gt;&lt;01&gt;: type NB, class IN" size="38" pos="44" value="204142414346504650454e464445434643455046484644454646504650414341420000200001">
        <field name="" show="Name: &lt;01&gt;&lt;02&gt;__MSBROWSE__&lt;02&gt;&lt;01&gt; (Browser)" size="34" pos="44" value="204142414346504650454e4644454346434550464846444546465046504143414200"/>
        <field name="" show="Type: NB" size="2" pos="78" value="0020"/>
        <field name="" show="Class: IN" size="2" pos="80" value="0001"/>
      </field>
    </field>
  </proto>
</packet>


<packet>
  <proto name="geninfo" pos="0" showname="General information" size="82">
    <field name="num" pos="0" show="21" showname="Number" value="15" size="82"/>
    <field name="len" pos="0" show="82" showname="Frame Length" value="52" size="82"/>
    <field name="caplen" pos="0" show="82" showname="Captured Length" value="52" size="82"/>
    <field name="timestamp" pos="0" show="Jan  7, 2013 15:57:37.520695000 PST" showname="Captured Time" value="1357603057.520695000" size="82"/>
  </proto>
  <proto name="frame" showname="Frame 21: 82 bytes on wire (656 bits), 82 bytes captured (656 bits)" size="82" pos="0">
    <field name="frame.time" showname="Arrival Time: Jan  7, 2013 15:57:37.520695000 PST" size="0" pos="0" show="Jan  7, 2013 15:57:37.520695000"/>
    <field name="frame.time_epoch" showname="Epoch Time: 1357603057.520695000 seconds" size="0" pos="0" show="1357603057.520695000"/>
    <field name="frame.time_delta" showname="Time delta from previous captured frame: 0.000060000 seconds" size="0" pos="0" show="0.000060000"/>
    <field name="frame.time_delta_displayed" showname="Time delta from previous displayed frame: 0.000060000 seconds" size="0" pos="0" show="0.000060000"/>
    <field name="frame.time_relative" showname="Time since reference or first frame: 1.247110000 seconds" size="0" pos="0" show="1.247110000"/>
    <field name="frame.number" showname="Frame Number: 21" size="0" pos="0" show="21"/>
    <field name="frame.len" showname="Frame Length: 82 bytes (656 bits)" size="0" pos="0" show="82"/>
    <field name="frame.cap_len" showname="Capture Length: 82 bytes (656 bits)" size="0" pos="0" show="82"/>
    <field name="frame.marked" showname="Frame is marked: False" size="0" pos="0" show="0"/>
    <field name="frame.ignored" showname="Frame is ignored: False" size="0" pos="0" show="0"/>
    <field name="frame.protocols" showname="Protocols in frame: null:ip:udp:nbns" size="0" pos="0" show="null:ip:udp:nbns"/>
  </proto>
  <proto name="null" showname="Null/Loopback" size="4" pos="0">
    <field name="null.family" showname="Family: IP (2)" size="4" pos="0" show="2" value="02000000"/>
  </proto>
  <proto name="ip" showname="Internet Protocol, Src: 192.168.4.224 (192.168.4.224), Dst: 192.168.4.255 (192.168.4.255)" size="20" pos="4">
    <field name="ip.version" showname="Version: 4" size="1" pos="4" show="4" value="45"/>
    <field name="ip.hdr_len" showname="Header length: 20 bytes" size="1" pos="4" show="20" value="45"/>
    <field name="ip.dsfield" showname="Differentiated Services Field: 0x00 (DSCP 0x00: Default; ECN: 0x00)" size="1" pos="5" show="0" value="00">
      <field name="ip.dsfield.dscp" showname="0000 00.. = Differentiated Services Codepoint: Default (0x00)" size="1" pos="5" show="0x00" value="0" unmaskedvalue="00"/>
      <field name="ip.dsfield.ect" showname=".... ..0. = ECN-Capable Transport (ECT): 0" size="1" pos="5" show="0" value="0" unmaskedvalue="00"/>
      <field name="ip.dsfield.ce" showname=".... ...0 = ECN-CE: 0" size="1" pos="5" show="0" value="0" unmaskedvalue="00"/>
    </field>
    <field name="ip.len" showname="Total Length: 78" size="2" pos="6" show="78" value="004e"/>
    <field name="ip.id" showname="Identification: 0xcab9 (51897)" size="2" pos="8" show="0xcab9" value="cab9"/>
    <field name="ip.flags" showname="Flags: 0x00" size="1" pos="10" show="0x00" value="00">
      <field name="ip.flags.rb" showname="0... .... = Reserved bit: Not set" size="1" pos="10" show="0" value="00"/>
      <field name="ip.flags.df" showname=".0.. .... = Don&apos;t fragment: Not set" size="1" pos="10" show="0" value="00"/>
      <field name="ip.flags.mf" showname="..0. .... = More fragments: Not set" size="1" pos="10" show="0" value="00"/>
    </field>
    <field name="ip.frag_offset" showname="Fragment offset: 0" size="2" pos="10" show="0" value="0000"/>
    <field name="ip.ttl" showname="Time to live: 64" size="1" pos="12" show="64" value="40"/>
    <field name="ip.proto" showname="Protocol: UDP (17)" size="1" pos="13" show="17" value="11"/>
    <field name="ip.checksum" showname="Header checksum: 0x24b6 [correct]" size="2" pos="14" show="0x24b6" value="24b6">
      <field name="ip.checksum_good" showname="Good: True" size="2" pos="14" show="1" value="24b6"/>
      <field name="ip.checksum_bad" showname="Bad: False" size="2" pos="14" show="0" value="24b6"/>
    </field>
    <field name="ip.src" showname="Source: 192.168.4.224 (192.168.4.224)" size="4" pos="16" show="192.168.4.224" value="c0a804e0"/>
    <field name="ip.addr" showname="Source or Destination Address: 192.168.4.224 (192.168.4.224)" hide="yes" size="4" pos="16" show="192.168.4.224" value="c0a804e0"/>
    <field name="ip.src_host" showname="Source Host: 192.168.4.224" hide="yes" size="4" pos="16" show="192.168.4.224" value="c0a804e0"/>
    <field name="ip.host" showname="Source or Destination Host: 192.168.4.224" hide="yes" size="4" pos="16" show="192.168.4.224" value="c0a804e0"/>
    <field name="ip.dst" showname="Destination: 192.168.4.255 (192.168.4.255)" size="4" pos="20" show="192.168.4.255" value="c0a804ff"/>
    <field name="ip.addr" showname="Source or Destination Address: 192.168.4.255 (192.168.4.255)" hide="yes" size="4" pos="20" show="192.168.4.255" value="c0a804ff"/>
    <field name="ip.dst_host" showname="Destination Host: 192.168.4.255" hide="yes" size="4" pos="20" show="192.168.4.255" value="c0a804ff"/>
    <field name="ip.host" showname="Source or Destination Host: 192.168.4.255" hide="yes" size="4" pos="20" show="192.168.4.255" value="c0a804ff"/>
  </proto>
  <proto name="udp" showname="User Datagram Protocol, Src Port: netbios-ns (137), Dst Port: netbios-ns (137)" size="8" pos="24">
    <field name="udp.srcport" showname="Source port: netbios-ns (137)" size="2" pos="24" show="137" value="0089"/>
    <field name="udp.dstport" showname="Destination port: netbios-ns (137)" size="2" pos="26" show="137" value="0089"/>
    <field name="udp.port" showname="Source or Destination Port: 137" hide="yes" size="2" pos="24" show="137" value="0089"/>
    <field name="udp.port" showname="Source or Destination Port: 137" hide="yes" size="2" pos="26" show="137" value="0089"/>
    <field name="udp.length" showname="Length: 58" size="2" pos="28" show="58" value="003a"/>
    <field name="udp.checksum_coverage" showname="Checksum coverage: 58" hide="yes" size="0" pos="28" show="58"/>
    <field name="udp.checksum" showname="Checksum: 0x7335 [validation disabled]" size="2" pos="30" show="0x7335" value="7335">
      <field name="udp.checksum_good" showname="Good Checksum: False" size="2" pos="30" show="0" value="7335"/>
      <field name="udp.checksum_bad" showname="Bad Checksum: False" size="2" pos="30" show="0" value="7335"/>
    </field>
  </proto>
  <proto name="nbns" showname="NetBIOS Name Service" size="50" pos="32">
    <field name="nbns.id" showname="Transaction ID: 0x5684" size="2" pos="32" show="0x5684" value="5684"/>
    <field name="nbns.flags" showname="Flags: 0x0110 (Name query)" size="2" pos="34" show="0x0110" value="0110">
      <field name="nbns.flags.response" showname="0... .... .... .... = Response: Message is a query" size="2" pos="34" show="0" value="0" unmaskedvalue="0110"/>
      <field name="nbns.flags.opcode" showname=".000 0... .... .... = Opcode: Name query (0)" size="2" pos="34" show="0" value="0" unmaskedvalue="0110"/>
      <field name="nbns.flags.truncated" showname=".... ..0. .... .... = Truncated: Message is not truncated" size="2" pos="34" show="0" value="0" unmaskedvalue="0110"/>
      <field name="nbns.flags.recdesired" showname=".... ...1 .... .... = Recursion desired: Do query recursively" size="2" pos="34" show="1" value="1" unmaskedvalue="0110"/>
      <field name="nbns.flags.broadcast" showname=".... .... ...1 .... = Broadcast: Broadcast packet" size="2" pos="34" show="1" value="1" unmaskedvalue="0110"/>
    </field>
    <field name="nbns.count.queries" showname="Questions: 1" size="2" pos="36" show="1" value="0001"/>
    <field name="nbns.count.answers" showname="Answer RRs: 0" size="2" pos="38" show="0" value="0000"/>
    <field name="nbns.count.auth_rr" showname="Authority RRs: 0" size="2" pos="40" show="0" value="0000"/>
    <field name="nbns.count.add_rr" showname="Additional RRs: 0" size="2" pos="42" show="0" value="0000"/>
    <field name="" show="Queries" size="38" pos="44" value="204142414346504650454e464445434643455046484644454646504650414341420000200001">
      <field name="" show="&lt;01&gt;&lt;02&gt;__MSBROWSE__&lt;02&gt;&lt;01&gt;: type NB, class IN" size="38" pos="44" value="204142414346504650454e464445434643455046484644454646504650414341420000200001">
        <field name="" show="Name: &lt;01&gt;&lt;02&gt;__MSBROWSE__&lt;02&gt;&lt;01&gt; (Browser)" size="34" pos="44" value="204142414346504650454e4644454346434550464846444546465046504143414200"/>
        <field name="" show="Type: NB" size="2" pos="78" value="0020"/>
        <field name="" show="Class: IN" size="2" pos="80" value="0001"/>
      </field>
    </field>
  </proto>
</packet>


</pdml>
